0x0000000004006b70:	f7 37 02 aa 9d ee 34 a1 52 c6	MOVIqq R7, 0xc652a134ee9daa02
0x0000000004006b66:	f7 36 c3 7a 55 82 ca b3 01 ed	MOVIqq R6, 0xed01b3ca82557ac3
0x0000000004006b5c:	f7 32 ef c7 8f 57 5d ec ac 8f	MOVIqq R2, 0x8facec5d578fc7ef
0x0000000004006b5a:	55 21	OR R1, R2
0x0000000004006b58:	57 61	SHL R1, R6
0x0000000004006b54:	77 36 37 00	MOVIqw R6, 0x0037
0x0000000004006b52:	58 62	SHR R2, R6
0x0000000004006b4e:	77 36 09 00	MOVIqw R6, 0x0009
0x0000000004006b4c:	20 12	MOVqw R2, R1
0x0000000004006b42:	f7 32 de be 09 9e eb d7 ec 39	MOVIqq R2, 0x39ecd7eb9e09bede
0x0000000004006b38:	f7 33 b0 d2 cf 24 d8 04 37 52	MOVIqq R3, 0x523704d824cfd2b0
0x0000000004006b36:	55 31	OR R1, R3
0x0000000004006b34:	57 21	SHL R1, R2
0x0000000004006b30:	77 32 12 00	MOVIqw R2, 0x0012
0x0000000004006b2e:	58 23	SHR R3, R2
0x0000000004006b2a:	77 32 2e 00	MOVIqw R2, 0x002e
0x0000000004006b28:	20 13	MOVqw R3, R1
0x0000000004006b26:	4c 31	ADD R1, R3
0x0000000004006b24:	4c 21	ADD R1, R2
0x0000000004006b1a:	f7 32 9f cf 22 e5 b5 91 83 6c	MOVIqq R2, 0x6c8391b5e522cf9f
0x0000000004006b18:	4b 11	NEG R1, R1
0x0000000004006b0e:	f7 34 e6 1d 5f ec 02 a4 51 88	MOVIqq R4, 0x8851a402ec5f1de6
0x0000000004006b0c:	4c 21	ADD R1, R2
0x0000000004006b0a:	4d 71	SUB R1, R7
0x0000000004006b00:	f7 33 7c e1 fc d5 4e 48 31 fd	MOVIqq R3, 0xfd31484ed5fce17c
0x0000000004006af6:	f7 35 cb fb 30 89 bf c6 e0 e9	MOVIqq R5, 0xe9e0c6bf8930fbcb
0x0000000004006af4:	55 51	OR R1, R5
0x0000000004006aea:	f7 35 00 30 00 01 02 04 00 00	MOVIqq R5, 0x0000040201003000
0x0000000004006ae8:	4d 41	SUB R1, R4
0x0000000004006ade:	f7 33 8c 2d 46 13 ec 8a a5 12	MOVIqq R3, 0x12a58aec13462d8c
0x0000000004006ad4:	f7 37 e6 0d aa 9c 52 92 c1 99	MOVIqq R7, 0x99c192529caa0de6
0x0000000004006aca:	f7 36 3f 49 f9 ed ee f1 f8 78	MOVIqq R6, 0x78f8f1eeedf9493f
0x0000000004006ac8:	55 61	OR R1, R6
0x0000000004006ac6:	57 71	SHL R1, R7
0x0000000004006ac2:	77 37 08 00	MOVIqw R7, 0x0008
0x0000000004006ac0:	58 76	SHR R6, R7
0x0000000004006abc:	77 37 38 00	MOVIqw R7, 0x0038
0x0000000004006aba:	20 16	MOVqw R6, R1
0x0000000004006ab8:	56 21	XOR R1, R2
0x0000000004006ab6:	4d 31	SUB R1, R3
0x0000000004006ab4:	4d 61	SUB R1, R6
0x0000000004006aaa:	f7 37 66 c6 39 60 17 f8 6d 09	MOVIqq R7, 0x096df8176039c666
0x0000000004006aa0:	f7 34 5a 8b dc 38 48 9f d8 03	MOVIqq R4, 0x03d89f4838dc8b5a
0x0000000004006a9e:	55 41	OR R1, R4
0x0000000004006a9c:	58 71	SHR R1, R7
0x0000000004006a98:	77 37 3a 00	MOVIqw R7, 0x003a
0x0000000004006a96:	57 74	SHL R4, R7
0x0000000004006a92:	77 37 06 00	MOVIqw R7, 0x0006
0x0000000004006a90:	20 14	MOVqw R4, R1
0x0000000004006a86:	f7 32 e2 bb ec d9 e6 94 f1 25	MOVIqq R2, 0x25f194e6d9ecbbe2
0x0000000004006a7c:	f7 37 83 e2 e4 c1 43 17 0b 40	MOVIqq R7, 0x400b1743c1e4e283
0x0000000004006a7a:	55 71	OR R1, R7
0x0000000004006a78:	58 21	SHR R1, R2
0x0000000004006a74:	77 32 37 00	MOVIqw R2, 0x0037
0x0000000004006a72:	57 27	SHL R7, R2
0x0000000004006a6e:	77 32 09 00	MOVIqw R2, 0x0009
0x0000000004006a6c:	20 17	MOVqw R7, R1
0x0000000004006a62:	f7 35 01 42 a7 50 6f 64 b3 3b	MOVIqq R5, 0x3bb3646f50a74201
0x0000000004006a60:	55 51	OR R1, R5
0x0000000004006a56:	f7 35 00 00 00 04 08 41 02 00	MOVIqq R5, 0x0002410804000000
0x0000000004006a54:	4a 11	NOT R1, R1
0x0000000004006a52:	4d 21	SUB R1, R2
0x0000000004006a48:	f7 33 53 67 b3 09 9d f6 e2 d5	MOVIqq R3, 0xd5e2f69d09b36753
0x0000000004006a46:	55 31	OR R1, R3
0x0000000004006a3c:	f7 33 00 80 90 40 00 01 00 00	MOVIqq R3, 0x0000010040908000
0x0000000004006a32:	f7 34 fd bb fa 62 d8 65 c0 1c	MOVIqq R4, 0x1cc065d862fabbfd
0x0000000004006a28:	f7 32 ce 38 06 09 40 d1 24 32	MOVIqq R2, 0x3224d140090638ce
0x0000000004006a26:	55 21	OR R1, R2
0x0000000004006a24:	58 41	SHR R1, R4
0x0000000004006a20:	77 34 16 00	MOVIqw R4, 0x0016
0x0000000004006a1e:	57 42	SHL R2, R4
0x0000000004006a1a:	77 34 2a 00	MOVIqw R4, 0x002a
0x0000000004006a18:	20 12	MOVqw R2, R1
0x0000000004006a0e:	f7 32 ed f6 1c e1 b4 a4 96 2e	MOVIqq R2, 0x2e96a4b4e11cf6ed
0x0000000004006a0c:	4d 31	SUB R1, R3
0x0000000004006a02:	f7 34 00 fa 73 a2 49 c0 48 8f	MOVIqq R4, 0x8f48c049a273fa00
0x00000000040069f8:	f7 32 fb 9a 11 16 4a 7a 37 ec	MOVIqq R2, 0xec377a4a16119afb
0x00000000040069ee:	f7 37 33 b6 3a 88 cb b1 d3 fa	MOVIqq R7, 0xfad3b1cb883ab633
0x00000000040069ec:	55 71	OR R1, R7
0x00000000040069ea:	57 21	SHL R1, R2
0x00000000040069e6:	77 32 0f 00	MOVIqw R2, 0x000f
0x00000000040069e4:	58 27	SHR R7, R2
0x00000000040069e0:	77 32 31 00	MOVIqw R2, 0x0031
0x00000000040069de:	20 17	MOVqw R7, R1
0x00000000040069dc:	56 41	XOR R1, R4
0x00000000040069d2:	f7 33 d3 92 09 5a 0d f1 7f a0	MOVIqq R3, 0xa07ff10d5a0992d3
0x00000000040069d0:	4a 11	NOT R1, R1
0x00000000040069ce:	56 51	XOR R1, R5
0x00000000040069c4:	f7 33 cb ee 68 8c 63 7f 11 16	MOVIqq R3, 0x16117f638c68eecb
0x00000000040069ba:	f7 35 cd cf e7 dc 31 65 06 53	MOVIqq R5, 0x53066531dce7cfcd
0x00000000040069b0:	f7 32 6d 78 fd b0 fe 06 a6 ff	MOVIqq R2, 0xffa606feb0fd786d
0x00000000040069ae:	55 21	OR R1, R2
0x00000000040069ac:	58 51	SHR R1, R5
0x00000000040069a8:	77 35 3a 00	MOVIqw R5, 0x003a
0x00000000040069a6:	57 52	SHL R2, R5
0x00000000040069a2:	77 35 06 00	MOVIqw R5, 0x0006
0x00000000040069a0:	20 12	MOVqw R2, R1
0x0000000004006996:	f7 34 80 5b 00 39 c0 1c e4 73	MOVIqq R4, 0x73e41cc039005b80
0x0000000004006994:	4b 11	NEG R1, R1
0x0000000004006992:	4c 41	ADD R1, R4
0x0000000004006988:	f7 36 27 cd f1 61 39 fa 82 58	MOVIqq R6, 0x5882fa3961f1cd27
0x0000000004006986:	4d 41	SUB R1, R4
0x0000000004006984:	4d 51	SUB R1, R5
0x000000000400697a:	f7 34 f1 e4 a1 38 d8 9e 3d be	MOVIqq R4, 0xbe3d9ed838a1e4f1
0x0000000004006978:	4c 21	ADD R1, R2
0x0000000004006976:	4d 21	SUB R1, R2
0x000000000400696c:	f7 37 e7 48 81 55 d5 4d 78 dc	MOVIqq R7, 0xdc784dd5558148e7
0x0000000004006962:	f7 35 a0 3a d7 2b f6 7f 87 3b	MOVIqq R5, 0x3b877ff62bd73aa0
0x0000000004006958:	f7 36 16 95 60 8e 2e 32 83 5f	MOVIqq R6, 0x5f83322e8e609516
0x0000000004006956:	55 61	OR R1, R6
0x0000000004006954:	58 51	SHR R1, R5
0x0000000004006950:	77 35 3a 00	MOVIqw R5, 0x003a
0x000000000400694e:	57 56	SHL R6, R5
0x000000000400694a:	77 35 06 00	MOVIqw R5, 0x0006
0x0000000004006948:	20 16	MOVqw R6, R1
0x000000000400693e:	f7 32 e5 25 f7 2b 9c 74 83 84	MOVIqq R2, 0x8483749c2bf725e5
0x0000000004006934:	f7 35 e8 6b 1f ad 04 1c c5 53	MOVIqq R5, 0x53c51c04ad1f6be8
0x0000000004006932:	55 51	OR R1, R5
0x0000000004006930:	58 21	SHR R1, R2
0x000000000400692c:	77 32 18 00	MOVIqw R2, 0x0018
0x000000000400692a:	57 25	SHL R5, R2
0x0000000004006926:	77 32 28 00	MOVIqw R2, 0x0028
0x0000000004006924:	20 15	MOVqw R5, R1
0x000000000400691a:	f7 36 18 0e d0 24 8d 8d fb ad	MOVIqq R6, 0xadfb8d8d24d00e18
0x0000000004006910:	f7 33 2a a2 cb 41 7e 04 11 e0	MOVIqq R3, 0xe011047e41cba22a
0x000000000400690e:	55 31	OR R1, R3
0x000000000400690c:	58 61	SHR R1, R6
0x0000000004006908:	77 36 02 00	MOVIqw R6, 0x0002
0x0000000004006906:	57 63	SHL R3, R6
0x0000000004006902:	77 36 3e 00	MOVIqw R6, 0x003e
0x0000000004006900:	20 13	MOVqw R3, R1
0x00000000040068fe:	4c 41	ADD R1, R4
0x00000000040068f4:	f7 34 d5 e0 0d 73 2c b5 15 df	MOVIqq R4, 0xdf15b52c730de0d5
0x00000000040068ea:	f7 36 13 04 f1 03 f5 4c a0 c0	MOVIqq R6, 0xc0a04cf503f10413
0x00000000040068e8:	55 61	OR R1, R6
0x00000000040068e6:	57 41	SHL R1, R4
0x00000000040068e2:	77 34 2a 00	MOVIqw R4, 0x002a
0x00000000040068e0:	58 46	SHR R6, R4
0x00000000040068dc:	77 34 16 00	MOVIqw R4, 0x0016
0x00000000040068da:	20 16	MOVqw R6, R1
0x00000000040068d8:	56 61	XOR R1, R6
0x00000000040068ce:	f7 35 90 09 5d 4f fd 07 3e d6	MOVIqq R5, 0xd63e07fd4f5d0990
0x00000000040068cc:	56 41	XOR R1, R4
0x00000000040068ca:	4d 51	SUB R1, R5
0x00000000040068c0:	f7 37 6a 16 05 75 ec ce 0d 21	MOVIqq R7, 0x210dceec7505166a
0x00000000040068b6:	f7 33 fe 39 1c e9 b2 0b 4e b0	MOVIqq R3, 0xb04e0bb2e91c39fe
0x00000000040068b4:	55 31	OR R1, R3
0x00000000040068b2:	57 71	SHL R1, R7
0x00000000040068ae:	77 37 2f 00	MOVIqw R7, 0x002f
0x00000000040068ac:	58 73	SHR R3, R7
0x00000000040068a8:	77 37 11 00	MOVIqw R7, 0x0011
0x00000000040068a6:	20 13	MOVqw R3, R1
0x00000000040068a4:	4d 71	SUB R1, R7
0x000000000400689a:	f7 35 4e 09 52 40 3d c3 eb 6d	MOVIqq R5, 0x6debc33d4052094e
0x0000000004006898:	56 31	XOR R1, R3
0x000000000400688e:	f7 32 6c f8 a1 b8 e6 e0 29 a0	MOVIqq R2, 0xa029e0e6b8a1f86c
0x000000000400688c:	4c 71	ADD R1, R7
0x0000000004006882:	f7 32 0b 7c 52 ab 31 76 4f 20	MOVIqq R2, 0x204f7631ab527c0b
0x0000000004006878:	f7 32 11 50 91 d4 f5 05 61 fb	MOVIqq R2, 0xfb6105f5d4915011
0x000000000400686e:	f7 35 93 cd 3c 80 ff 27 e2 21	MOVIqq R5, 0x21e227ff803ccd93
0x000000000400686c:	55 51	OR R1, R5
0x000000000400686a:	57 21	SHL R1, R2
0x0000000004006866:	77 32 3b 00	MOVIqw R2, 0x003b
0x0000000004006864:	58 25	SHR R5, R2
0x0000000004006860:	77 32 05 00	MOVIqw R2, 0x0005
0x000000000400685e:	20 15	MOVqw R5, R1
0x0000000004006854:	f7 37 96 ce 95 ba 4e 04 d0 02	MOVIqq R7, 0x02d0044eba95ce96
0x000000000400684a:	f7 32 18 77 ee ce 4e e9 5c 04	MOVIqq R2, 0x045ce94eceee7718
0x0000000004006848:	55 21	OR R1, R2
0x0000000004006846:	57 71	SHL R1, R7
0x0000000004006842:	77 37 03 00	MOVIqw R7, 0x0003
0x0000000004006840:	58 72	SHR R2, R7
0x000000000400683c:	77 37 3d 00	MOVIqw R7, 0x003d
0x000000000400683a:	20 12	MOVqw R2, R1
0x0000000004006838:	4d 51	SUB R1, R5
0x000000000400682e:	f7 33 3a 45 c9 e6 06 cf ed 3a	MOVIqq R3, 0x3aedcf06e6c9453a
0x0000000004006824:	f7 32 89 d4 47 8f 06 e1 c6 eb	MOVIqq R2, 0xebc6e1068f47d489
0x0000000004006822:	55 21	OR R1, R2
0x0000000004006820:	58 31	SHR R1, R3
0x000000000400681c:	77 33 18 00	MOVIqw R3, 0x0018
0x000000000400681a:	57 32	SHL R2, R3
0x0000000004006816:	77 33 28 00	MOVIqw R3, 0x0028
0x0000000004006814:	20 12	MOVqw R2, R1
0x000000000400680a:	f7 36 25 04 66 2b 9b 8f af a0	MOVIqq R6, 0xa0af8f9b2b660425
0x0000000004006800:	f7 37 80 0a 36 3a 7d e4 68 5e	MOVIqq R7, 0x5e68e47d3a360a80
0x00000000040067fe:	55 71	OR R1, R7
0x00000000040067fc:	58 61	SHR R1, R6
0x00000000040067f8:	77 36 05 00	MOVIqw R6, 0x0005
0x00000000040067f6:	57 67	SHL R7, R6
0x00000000040067f2:	77 36 3b 00	MOVIqw R6, 0x003b
0x00000000040067f0:	20 17	MOVqw R7, R1
0x00000000040067e6:	f7 32 fc 65 4e f8 9b 2c d1 9d	MOVIqq R2, 0x9dd12c9bf84e65fc
0x00000000040067dc:	f7 33 80 64 4e 6f bf bb 0f 08	MOVIqq R3, 0x080fbbbf6f4e6480
0x00000000040067d2:	f7 35 b7 12 73 8d 78 c7 f7 86	MOVIqq R5, 0x86f7c7788d7312b7
0x00000000040067d0:	55 51	OR R1, R5
0x00000000040067ce:	58 31	SHR R1, R3
0x00000000040067ca:	77 33 27 00	MOVIqw R3, 0x0027
0x00000000040067c8:	57 35	SHL R5, R3
0x00000000040067c4:	77 33 19 00	MOVIqw R3, 0x0019
0x00000000040067c2:	20 15	MOVqw R5, R1
0x00000000040067b8:	f7 35 91 a0 73 f3 74 e1 ab 46	MOVIqq R5, 0x46abe174f373a091
0x00000000040067ae:	f7 37 11 b8 37 bb 26 09 f7 8a	MOVIqq R7, 0x8af70926bb37b811
0x00000000040067ac:	55 71	OR R1, R7
0x00000000040067aa:	58 51	SHR R1, R5
0x00000000040067a6:	77 35 0d 00	MOVIqw R5, 0x000d
0x00000000040067a4:	57 57	SHL R7, R5
0x00000000040067a0:	77 35 33 00	MOVIqw R5, 0x0033
0x000000000400679e:	20 17	MOVqw R7, R1
0x0000000004006794:	f7 37 27 4e 1b ac e0 1e 13 76	MOVIqq R7, 0x76131ee0ac1b4e27
0x000000000400678a:	f7 34 c7 2e 88 ab 8e 12 aa ba	MOVIqq R4, 0xbaaa128eab882ec7
0x0000000004006788:	55 41	OR R1, R4
0x0000000004006786:	57 71	SHL R1, R7
0x0000000004006782:	77 37 34 00	MOVIqw R7, 0x0034
0x0000000004006780:	58 74	SHR R4, R7
0x000000000400677c:	77 37 0c 00	MOVIqw R7, 0x000c
0x000000000400677a:	20 14	MOVqw R4, R1
0x0000000004006770:	f7 33 5a 40 6f 03 4d f4 7a c7	MOVIqq R3, 0xc77af44d036f405a
0x0000000004006766:	f7 32 6c 8b 37 7a 77 11 b1 64	MOVIqq R2, 0x64b111777a378b6c
0x0000000004006764:	55 21	OR R1, R2
0x0000000004006762:	57 31	SHL R1, R3
0x000000000400675e:	77 33 31 00	MOVIqw R3, 0x0031
0x000000000400675c:	58 32	SHR R2, R3
0x0000000004006758:	77 33 0f 00	MOVIqw R3, 0x000f
0x0000000004006756:	20 12	MOVqw R2, R1
0x0000000004006754:	4d 21	SUB R1, R2
0x000000000400674a:	f7 35 ed 48 2f 57 37 61 86 41	MOVIqq R5, 0x41866137572f48ed
0x0000000004006740:	f7 34 19 0f 85 84 34 f7 fe 2e	MOVIqq R4, 0x2efef73484850f19
0x000000000400673e:	55 41	OR R1, R4
0x0000000004006734:	f7 34 50 40 00 08 00 00 01 00	MOVIqq R4, 0x0001000008004050
0x000000000400672a:	f7 33 c3 df e0 b6 02 21 d6 2d	MOVIqq R3, 0x2dd62102b6e0dfc3
0x0000000004006720:	f7 34 17 ae 25 cf 64 f9 dd c2	MOVIqq R4, 0xc2ddf964cf25ae17
0x000000000400671e:	55 41	OR R1, R4
0x000000000400671c:	57 31	SHL R1, R3
0x0000000004006718:	77 33 19 00	MOVIqw R3, 0x0019
0x0000000004006716:	58 34	SHR R4, R3
0x0000000004006712:	77 33 27 00	MOVIqw R3, 0x0027
0x0000000004006710:	20 14	MOVqw R4, R1
0x0000000004006706:	f7 33 58 f0 e7 57 f3 74 46 3f	MOVIqq R3, 0x3f4674f357e7f058
0x0000000004006704:	55 31	OR R1, R3
0x00000000040066fa:	f7 33 00 02 00 00 00 b0 00 10	MOVIqq R3, 0x1000b00000000200
0x00000000040066f0:	f7 34 65 b9 d1 07 98 3e 33 1a	MOVIqq R4, 0x1a333e9807d1b965
0x00000000040066ee:	56 31	XOR R1, R3
0x00000000040066e4:	f7 32 7a d0 13 6f 74 88 12 8d	MOVIqq R2, 0x8d1288746f13d07a
0x00000000040066e2:	4c 21	ADD R1, R2
0x00000000040066d8:	f7 35 93 98 89 2f c8 09 79 21	MOVIqq R5, 0x217909c82f899893
0x00000000040066d6:	4c 51	ADD R1, R5
0x00000000040066cc:	f7 34 55 c3 84 13 75 1c f6 42	MOVIqq R4, 0x42f61c751384c355
0x00000000040066c2:	f7 35 00 49 8e 97 d5 ee b1 20	MOVIqq R5, 0x20b1eed5978e4900
0x00000000040066c0:	55 51	OR R1, R5
0x00000000040066b6:	f7 35 00 00 00 10 24 80 00 01	MOVIqq R5, 0x0100802410000000
0x00000000040066ac:	f7 33 9f 91 21 91 9b 03 f6 57	MOVIqq R3, 0x57f6039b9121919f
0x00000000040066a2:	f7 37 43 e7 c6 0c 1d 30 58 ef	MOVIqq R7, 0xef58301d0cc6e743
0x00000000040066a0:	55 71	OR R1, R7
0x000000000400669e:	57 31	SHL R1, R3
0x000000000400669a:	77 33 2b 00	MOVIqw R3, 0x002b
0x0000000004006698:	58 37	SHR R7, R3
0x0000000004006694:	77 33 15 00	MOVIqw R3, 0x0015
0x0000000004006692:	20 17	MOVqw R7, R1
0x0000000004006690:	4b 11	NEG R1, R1
0x000000000400668e:	4c 21	ADD R1, R2
0x000000000400668c:	4d 71	SUB R1, R7
0x000000000400668a:	4d 31	SUB R1, R3
0x0000000004006680:	f7 35 93 15 fe f3 b4 11 57 67	MOVIqq R5, 0x675711b4f3fe1593
0x000000000400667e:	4c 31	ADD R1, R3
0x000000000400667c:	4b 11	NEG R1, R1
0x0000000004006672:	f7 32 f3 fc c1 29 b7 52 e2 26	MOVIqq R2, 0x26e252b729c1fcf3
0x0000000004006668:	f7 35 e1 8a ff 7b bf ec b5 41	MOVIqq R5, 0x41b5ecbf7bff8ae1
0x0000000004006666:	55 51	OR R1, R5
0x0000000004006664:	57 21	SHL R1, R2
0x0000000004006660:	77 32 05 00	MOVIqw R2, 0x0005
0x000000000400665e:	58 25	SHR R5, R2
0x000000000400665a:	77 32 3b 00	MOVIqw R2, 0x003b
0x0000000004006658:	20 15	MOVqw R5, R1
0x000000000400664e:	f7 34 4c 2b 9f 99 10 6d bd e0	MOVIqq R4, 0xe0bd6d10999f2b4c
0x000000000400664c:	4c 51	ADD R1, R5
0x0000000004006642:	f7 33 37 76 ed 9e 5c ad a2 68	MOVIqq R3, 0x68a2ad5c9eed7637
0x0000000004006638:	f7 35 07 67 2d 5f 4e 02 45 08	MOVIqq R5, 0x0845024e5f2d6707
0x000000000400662e:	f7 32 bd 7c d8 82 fd 32 d9 f4	MOVIqq R2, 0xf4d932fd82d87cbd
0x000000000400662c:	55 21	OR R1, R2
0x000000000400662a:	57 51	SHL R1, R5
0x0000000004006626:	77 35 15 00	MOVIqw R5, 0x0015
0x0000000004006624:	58 52	SHR R2, R5
0x0000000004006620:	77 35 2b 00	MOVIqw R5, 0x002b
0x000000000400661e:	20 12	MOVqw R2, R1
0x0000000004006614:	f7 36 53 b1 7b b0 e8 92 53 87	MOVIqq R6, 0x875392e8b07bb153
0x000000000400660a:	f7 33 2f d4 27 f3 fe db d9 0f	MOVIqq R3, 0x0fd9dbfef327d42f
0x0000000004006608:	55 31	OR R1, R3
0x0000000004006606:	58 61	SHR R1, R6
0x0000000004006602:	77 36 39 00	MOVIqw R6, 0x0039
0x0000000004006600:	57 63	SHL R3, R6
0x00000000040065fc:	77 36 07 00	MOVIqw R6, 0x0007
0x00000000040065fa:	20 13	MOVqw R3, R1
0x00000000040065f0:	f7 37 87 b5 53 06 8c da f5 c6	MOVIqq R7, 0xc6f5da8c0653b587
0x00000000040065e6:	f7 35 eb fd a5 b5 df e4 99 e0	MOVIqq R5, 0xe099e4dfb5a5fdeb
0x00000000040065dc:	f7 37 ab 47 a5 ec a8 ad 02 a2	MOVIqq R7, 0xa202ada8eca547ab
0x00000000040065da:	55 71	OR R1, R7
0x00000000040065d8:	58 51	SHR R1, R5
0x00000000040065d4:	77 35 24 00	MOVIqw R5, 0x0024
0x00000000040065d2:	57 57	SHL R7, R5
0x00000000040065ce:	77 35 1c 00	MOVIqw R5, 0x001c
0x00000000040065cc:	20 17	MOVqw R7, R1
0x00000000040065c2:	f7 35 59 79 70 28 4c f6 fa 6a	MOVIqq R5, 0x6afaf64c28707959
0x00000000040065b8:	f7 34 3b 8e cf 12 92 8c d0 6c	MOVIqq R4, 0x6cd08c9212cf8e3b
0x00000000040065ae:	f7 35 f1 d7 77 da 65 b2 0a 2f	MOVIqq R5, 0x2f0ab265da77d7f1
0x00000000040065ac:	55 51	OR R1, R5
0x00000000040065aa:	57 41	SHL R1, R4
0x00000000040065a6:	77 34 35 00	MOVIqw R4, 0x0035
0x00000000040065a4:	58 45	SHR R5, R4
0x00000000040065a0:	77 34 0b 00	MOVIqw R4, 0x000b
0x000000000400659e:	20 15	MOVqw R5, R1
0x000000000400659c:	4b 11	NEG R1, R1
0x000000000400659a:	4b 11	NEG R1, R1
0x0000000004006590:	f7 35 c2 39 0a aa 25 ab 89 52	MOVIqq R5, 0x5289ab25aa0a39c2
0x0000000004006586:	f7 37 bc 00 11 6a 0e cd a4 4c	MOVIqq R7, 0x4ca4cd0e6a1100bc
0x0000000004006584:	55 71	OR R1, R7
0x0000000004006582:	57 51	SHL R1, R5
0x000000000400657e:	77 35 06 00	MOVIqw R5, 0x0006
0x000000000400657c:	58 57	SHR R7, R5
0x0000000004006578:	77 35 3a 00	MOVIqw R5, 0x003a
0x0000000004006576:	20 17	MOVqw R7, R1
0x000000000400656c:	f7 32 ec 77 bf f3 75 57 9a 3e	MOVIqq R2, 0x3e9a5775f3bf77ec
0x000000000400656a:	4c 31	ADD R1, R3
0x0000000004006568:	4b 11	NEG R1, R1
0x000000000400655e:	f7 37 a5 6d b5 31 1d 83 e9 12	MOVIqq R7, 0x12e9831d31b56da5
0x000000000400655c:	4d 61	SUB R1, R6
0x0000000004006552:	f7 35 42 12 12 ea a3 01 09 e5	MOVIqq R5, 0xe50901a3ea121242
0x0000000004006550:	4c 31	ADD R1, R3
0x0000000004006546:	f7 33 a5 a2 dd a8 26 db df db	MOVIqq R3, 0xdbdfdb26a8dda2a5
0x0000000004006544:	4b 11	NEG R1, R1
0x000000000400653a:	f7 36 35 a1 3a 1a e6 ce f4 c8	MOVIqq R6, 0xc8f4cee61a3aa135
0x0000000004006538:	4c 31	ADD R1, R3
0x000000000400652e:	f7 34 12 eb 99 cc 08 d4 ce 70	MOVIqq R4, 0x70ced408cc99eb12
0x0000000004006524:	f7 32 27 af 5b 31 9e 1f 8e 29	MOVIqq R2, 0x298e1f9e315baf27
0x0000000004006522:	55 21	OR R1, R2
0x0000000004006520:	57 41	SHL R1, R4
0x000000000400651c:	77 34 3a 00	MOVIqw R4, 0x003a
0x000000000400651a:	58 42	SHR R2, R4
0x0000000004006516:	77 34 06 00	MOVIqw R4, 0x0006
0x0000000004006514:	20 12	MOVqw R2, R1
0x0000000004006512:	4c 21	ADD R1, R2
0x0000000004006510:	4c 21	ADD R1, R2
0x0000000004006506:	f7 36 08 e2 78 94 a9 72 22 f8	MOVIqq R6, 0xf82272a99478e208
0x00000000040064fc:	f7 34 0e 7a 11 54 dc 70 ce ed	MOVIqq R4, 0xedce70dc54117a0e
0x00000000040064fa:	55 41	OR R1, R4
0x00000000040064f8:	57 61	SHL R1, R6
0x00000000040064f4:	77 36 29 00	MOVIqw R6, 0x0029
0x00000000040064f2:	58 64	SHR R4, R6
0x00000000040064ee:	77 36 17 00	MOVIqw R6, 0x0017
0x00000000040064ec:	20 14	MOVqw R4, R1
0x00000000040064e2:	f7 34 c4 c6 b5 a3 bc 74 be 71	MOVIqq R4, 0x71be74bca3b5c6c4
0x00000000040064d8:	f7 35 f4 e3 c6 94 27 0c f8 60	MOVIqq R5, 0x60f80c2794c6e3f4
0x00000000040064d6:	55 51	OR R1, R5
0x00000000040064d4:	57 41	SHL R1, R4
0x00000000040064d0:	77 34 37 00	MOVIqw R4, 0x0037
0x00000000040064ce:	58 45	SHR R5, R4
0x00000000040064ca:	77 34 09 00	MOVIqw R4, 0x0009
0x00000000040064c8:	20 15	MOVqw R5, R1
0x00000000040064be:	f7 36 a2 e8 87 ee 2d 25 74 46	MOVIqq R6, 0x4674252dee87e8a2
0x00000000040064bc:	56 61	XOR R1, R6
0x00000000040064b2:	f7 34 ba 8b a8 9f 1c 75 02 d2	MOVIqq R4, 0xd202751c9fa88bba
0x00000000040064a8:	f7 33 b9 e8 f4 a2 85 3c 55 61	MOVIqq R3, 0x61553c85a2f4e8b9
0x00000000040064a6:	55 31	OR R1, R3
0x00000000040064a4:	58 41	SHR R1, R4
0x00000000040064a0:	77 34 28 00	MOVIqw R4, 0x0028
0x000000000400649e:	57 43	SHL R3, R4
0x000000000400649a:	77 34 18 00	MOVIqw R4, 0x0018
0x0000000004006498:	20 13	MOVqw R3, R1
0x000000000400648e:	f7 32 59 11 93 f5 e8 90 ce 8b	MOVIqq R2, 0x8bce90e8f5931159
0x0000000004006484:	f7 35 c8 c7 2e 31 e6 a3 2c a4	MOVIqq R5, 0xa42ca3e6312ec7c8
0x0000000004006482:	55 51	OR R1, R5
0x0000000004006480:	58 21	SHR R1, R2
0x000000000400647c:	77 32 1d 00	MOVIqw R2, 0x001d
0x000000000400647a:	57 25	SHL R5, R2
0x0000000004006476:	77 32 23 00	MOVIqw R2, 0x0023
0x0000000004006474:	20 15	MOVqw R5, R1
0x000000000400646a:	f7 33 b2 4d ba 28 35 cf c8 b7	MOVIqq R3, 0xb7c8cf3528ba4db2
0x0000000004006460:	f7 32 56 5e c9 fd 35 ba b9 d7	MOVIqq R2, 0xd7b9ba35fdc95e56
0x0000000004006456:	f7 33 21 f7 f9 6d 15 b3 85 8d	MOVIqq R3, 0x8d85b3156df9f721
0x0000000004006454:	55 31	OR R1, R3
0x0000000004006452:	57 21	SHL R1, R2
0x000000000400644e:	77 32 27 00	MOVIqw R2, 0x0027
0x000000000400644c:	58 23	SHR R3, R2
0x0000000004006448:	77 32 19 00	MOVIqw R2, 0x0019
0x0000000004006446:	20 13	MOVqw R3, R1
0x0000000004006444:	4d 51	SUB R1, R5
0x000000000400643a:	f7 35 fc ab e8 58 9c b9 64 61	MOVIqq R5, 0x6164b99c58e8abfc
0x0000000004006438:	4d 61	SUB R1, R6
0x000000000400642e:	f7 36 b7 97 1e e8 ef 44 57 ee	MOVIqq R6, 0xee5744efe81e97b7
0x0000000004006424:	f7 34 3d 07 f6 8d 17 ba 63 26	MOVIqq R4, 0x2663ba178df6073d
0x000000000400641a:	f7 32 59 c1 c7 40 77 46 a9 e0	MOVIqq R2, 0xe0a9467740c7c159
0x0000000004006418:	55 21	OR R1, R2
0x0000000004006416:	58 41	SHR R1, R4
0x0000000004006412:	77 34 1d 00	MOVIqw R4, 0x001d
0x0000000004006410:	57 42	SHL R2, R4
0x000000000400640c:	77 34 23 00	MOVIqw R4, 0x0023
0x000000000400640a:	20 12	MOVqw R2, R1
0x0000000004006408:	4d 71	SUB R1, R7
0x00000000040063fe:	f7 36 9f 9a dd 41 22 f9 03 43	MOVIqq R6, 0x4303f92241dd9a9f
0x00000000040063fc:	56 21	XOR R1, R2
0x00000000040063f2:	f7 36 17 b7 d6 86 f5 5f 48 87	MOVIqq R6, 0x87485ff586d6b717
0x00000000040063e8:	f7 32 3e a1 d6 ef 34 f2 5c 9c	MOVIqq R2, 0x9c5cf234efd6a13e
0x00000000040063e6:	55 21	OR R1, R2
0x00000000040063dc:	f7 32 42 10 00 00 00 80 00 00	MOVIqq R2, 0x0000800000001042
0x00000000040063d2:	f7 37 03 bf 3b 0b c8 2c 7e 12	MOVIqq R7, 0x127e2cc80b3bbf03
0x00000000040063c8:	f7 36 75 9d cd 43 a1 5a d2 cd	MOVIqq R6, 0xcdd25aa143cd9d75
0x00000000040063c6:	55 61	OR R1, R6
0x00000000040063c4:	57 71	SHL R1, R7
0x00000000040063c0:	77 37 23 00	MOVIqw R7, 0x0023
0x00000000040063be:	58 76	SHR R6, R7
0x00000000040063ba:	77 37 1d 00	MOVIqw R7, 0x001d
0x00000000040063b8:	20 16	MOVqw R6, R1
0x00000000040063ae:	f7 35 0c cc 12 3f dc df 22 f5	MOVIqq R5, 0xf522dfdc3f12cc0c
0x00000000040063a4:	f7 36 4e 52 2e 98 bf 76 58 1e	MOVIqq R6, 0x1e5876bf982e524e
0x00000000040063a2:	55 61	OR R1, R6
0x00000000040063a0:	57 51	SHL R1, R5
0x000000000400639c:	77 35 0b 00	MOVIqw R5, 0x000b
0x000000000400639a:	58 56	SHR R6, R5
0x0000000004006396:	77 35 35 00	MOVIqw R5, 0x0035
0x0000000004006394:	20 16	MOVqw R6, R1
0x000000000400638a:	f7 37 3d ab 69 e3 39 83 51 67	MOVIqq R7, 0x67518339e369ab3d
0x0000000004006380:	f7 36 34 51 ff b2 83 0d 0a ab	MOVIqq R6, 0xab0a0d83b2ff5134
0x0000000004006376:	f7 35 55 33 08 d2 b3 4d 9c a2	MOVIqq R5, 0xa29c4db3d2083355
0x000000000400636c:	f7 34 55 51 68 5d 0d 53 fa 1b	MOVIqq R4, 0x1bfa530d5d685155
0x0000000004006362:	f7 33 8b 7b 73 c6 6e 28 0a d3	MOVIqq R3, 0xd30a286ec6737b8b
0x0000000004006358:	f7 32 f2 28 f6 95 b8 75 5d bb	MOVIqq R2, 0xbb5d75b895f628f2
