0x0000000004006000:     79 01 fc 0f     MOVREL R1, 0x0ffc
0x0000000004006004:     20 91   MOVqw R1, @R1
0x0000000004006006:     72 91 85 21     MOVnw R1, @R1 (+5, +24)
0x000000000400600a:     b5 08 10 00     PUSHn @R0 (+0, +16)
0x000000000400600e:     35 01   PUSHn R1
0x0000000004006010:     83 29 01 00 00 10       CALLEXa @R1 (+1, +0)
0x0000000004006016:     60 00 02 10     MOVqw R0, R0 (+2, +0)
0x000000000400601a:     04 00   RET


  
0x000000000400601c:     56 66   XOR R6, R6
0x000000000400601e:     20 63   MOVqw R3, R6
0x0000000004006020:     4a 64   NOT R4, R6
0x0000000004006022:     79 07 2a 10     MOVREL R7, 0x102a
0x0000000004006026:     6b 07   PUSH R7
0x0000000004006028:     60 81 18 00     MOVqw R1, @R0 (+0, +24)
0x000000000400602c:     02 0a   JMP8 0x0a
0x000000000400602e:     56 66   XOR R6, R6
0x0000000004006030:     77 33 08 00     MOVIqw R3, 0x0008
0x0000000004006034:     0a 64   NOT R4, R6
0x0000000004006036:     79 07 fc 0f     MOVREL R7, 0x0ffc
0x000000000400603a:     6b 07   PUSH R7
0x000000000400603c:     60 81 18 00     MOVqw R1, @R0 (+0, +24)
0x0000000004006040:     54 41   AND R1, R4
0x0000000004006042:     6b 01   PUSH R1
0x0000000004006044:     cc 67 04 00     ADD R7, R6 (0x0004)
0x0000000004006048:     79 05 ca 0f     MOVREL R5, 0x0fca
0x000000000400604c:     20 81   MOVqw R1, @R0
0x000000000400604e:     77 32 04 00     MOVIqw R2, 0x0004
0x0000000004006052:     ce 32 f1 ff     MUL R2, R3 (0xfff1)
0x0000000004006056:     4b 22   NEG R2, R2
0x0000000004006058:     58 21   SHR R1, R2
0x000000000400605a:     4c 11   ADD R1, R1
0x000000000400605c:     6b 05   PUSH R5
0x000000000400605e:     4c 15   ADD R5, R1
0x0000000004006060:     1e df   MOVww @R7, @R5
0x0000000004006062:     cc 67 02 00     ADD R7, R6 (0x0002)
0x0000000004006066:     6c 05   POP R5
0x0000000004006068:     d8 64 04 00     SHR R4, R6 (0x0004)
0x000000000400606c:     54 48   AND @R0, R4
0x000000000400606e:     cc 63 01 00     ADD R3, R6 (0x0001)
0x0000000004006072:     6f 03 10 00     CMPIgte R3, (0x0010)
0x0000000004006076:     82 ea   JMP8cc 0xea
0x0000000004006078:     6c 01   POP R1
0x000000000400607a:     83 10 80 ff ff ff       CALL R0 (0xffffff80)
0x0000000004006080:     6c 01   POP R1
0x0000000004006082:     04 00   RET


0x0000000004006084:     79 01 78 0f     MOVREL R1, 0x0f78
0x0000000004006088:     20 91   MOVqw R1, @R1
0x000000000400608a:     72 91 63 10     MOVnw R1, @R1 (+3, +24)
0x000000000400608e:     77 32 00 00     MOVIqw R2, 0x0000
0x0000000004006092:     35 02   PUSHn R2
0x0000000004006094:     35 01   PUSHn R1
0x0000000004006096:     03 29   CALLEXa @R1
0x0000000004006098:     36 01   POPn R1
0x000000000400609a:     36 02   POPn R2
0x000000000400609c:     79 03 60 0f     MOVREL R3, 0x0f60
0x00000000040060a0:     20 b3   MOVqw R3, @R3
0x00000000040060a2:     72 b3 89 21     MOVnw R3, @R3 (+9, +24)
0x00000000040060a6:     79 02 5e 0f     MOVREL R2, 0x0f5e
0x00000000040060aa:     35 02   PUSHn R2
0x00000000040060ac:     60 11 02 10     MOVqw R1, R1 (+2, +0)
0x00000000040060b0:     35 01   PUSHn R1
0x00000000040060b2:     77 31 01 00     MOVIqw R1, 0x0001
0x00000000040060b6:     35 01   PUSHn R1
0x00000000040060b8:     83 2b 89 01 00 10       CALLEXa @R3 (+9, +24)
0x00000000040060be:     60 00 03 10     MOVqw R0, R0 (+3, +0)
0x00000000040060c2:     79 01 3a 0f     MOVREL R1, 0x0f3a
0x00000000040060c6:     20 91   MOVqw R1, @R1
0x00000000040060c8:     72 91 63 10     MOVnw R1, @R1 (+3, +24)
0x00000000040060cc:     79 02 40 0f     MOVREL R2, 0x0f40
0x00000000040060d0:     35 02   PUSHn R2
0x00000000040060d2:     35 01   PUSHn R1
0x00000000040060d4:     83 29 01 00 00 10       CALLEXa @R1 (+1, +0)
0x00000000040060da:     36 01   POPn R1
0x00000000040060dc:     36 02   POPn R2
0x00000000040060de:     04 00   RET

  
0x00000000040060e0:     77 33 00 00     MOVIqw R3, 0x0000
0x00000000040060e4:     77 34 20 00     MOVIqw R4, 0x0020
0x00000000040060e8:     6b 03   PUSH R3
0x00000000040060ea:     6b 04   PUSH R4
0x00000000040060ec:     83 10 92 ff ff ff       CALL R0 (0xffffff92)
0x00000000040060f2:     6c 04   POP R4
0x00000000040060f4:     6c 03   POP R3
0x00000000040060f6:     79 01 18 0f     MOVREL R1, 0x0f18
0x00000000040060fa:     6b 01   PUSH R1
0x00000000040060fc:     83 10 fe fe ff ff       CALL R0 (0xfffffefe)
0x0000000004006102:     6c 01   POP R1
0x0000000004006104:     79 01 0a 0f     MOVREL R1, 0x0f0a
0x0000000004006108:     79 02 76 0f     MOVREL R2, 0x0f76
0x000000000400610c:     4c 32   ADD R2, R3
0x000000000400610e:     1d 9a   MOVbw @R2, @R1
0x0000000004006110:     77 31 01 00     MOVIqw R1, 0x0001
0x0000000004006114:     4c 13   ADD R3, R1
0x0000000004006116:     45 43   CMPeq R3, R4
0x0000000004006118:     82 e7   JMP8cc 0xe7
0x000000000400611a:     04 00   RET

  
0x000000000400611c:     79 01 e0 0e     MOVREL R1, 0x0ee0
0x0000000004006120:     72 89 41 10     MOVnw @R1, @R0 (+1, +16)
0x0000000004006124:     79 01 d8 0f     MOVREL R1, 0x0fd8
0x0000000004006128:     6b 01   PUSH R1
0x000000000400612a:     83 10 d0 fe ff ff       CALL R0 (0xfffffed0)
0x0000000004006130:     6c 01   POP R1
0x0000000004006132:     83 10 a8 ff ff ff       CALL R0 (0xffffffa8)
0x0000000004006138:     79 01 be 0f     MOVREL R1, 0x0fbe
0x000000000400613c:     6b 01   PUSH R1
0x000000000400613e:     83 10 bc fe ff ff       CALL R0 (0xfffffebc)
0x0000000004006144:     6c 01   POP R1
0x0000000004006146:     79 02 ca 0f     MOVREL R2, 0x0fca
0x000000000400614a:     79 03 06 02     MOVREL R3, 0x0206
0x000000000400614e:     79 04 ba 0f     MOVREL R4, 0x0fba
0x0000000004006152:     20 c4   MOVqw R4, @R4
0x0000000004006154:     77 35 00 00     MOVIqw R5, 0x0000
0x0000000004006158:     79 06 1e 0f     MOVREL R6, 0x0f1e
0x000000000400615c:     1f e6   MOVdw R6, @R6
0x000000000400615e:     1f a1   MOVdw R1, @R2
0x0000000004006160:     16 61   XOR R1, R6
0x0000000004006162:     1f 1b   MOVdw @R3, R1
0x0000000004006164:     77 31 04 00     MOVIqw R1, 0x0004
0x0000000004006168:     4c 12   ADD R2, R1
0x000000000400616a:     4c 13   ADD R3, R1
0x000000000400616c:     4c 15   ADD R5, R1
0x000000000400616e:     45 54   CMPeq R4, R5
0x0000000004006170:     82 f6   JMP8cc 0xf6
0x0000000004006172:     79 01 0c 0f     MOVREL R1, 0x0f0c
0x0000000004006176:     20 91   MOVqw R1, @R1
0x0000000004006178:     6b 01   PUSH R1
0x000000000400617a:     83 10 d4 01 00 00       CALL R0 (0x000001d4)
0x0000000004006180:     6c 01   POP R1
0x0000000004006182:     77 31 01 00     MOVIqw R1, 0x0001
0x0000000004006186:     45 71   CMPeq R1, R7
0x0000000004006188:     81 90 c4 01 00 00       JMPcc R0 (0x000001c4)
0x000000000400618e:     79 03 6e 0e     MOVREL R3, 0x0e6e
0x0000000004006192:     20 b3   MOVqw R3, @R3
0x0000000004006194:     72 b3 89 21     MOVnw R3, @R3 (+9, +24)
0x0000000004006198:     79 01 de 0e     MOVREL R1, 0x0ede
0x000000000400619c:     35 01   PUSHn R1
0x000000000400619e:     77 31 08 00     MOVIqw R1, 0x0008
0x00000000040061a2:     35 01   PUSHn R1
0x00000000040061a4:     79 01 da 0e     MOVREL R1, 0x0eda
0x00000000040061a8:     35 01   PUSHn R1
0x00000000040061aa:     83 2b 28 18 00 20       CALLEXa @R3 (+40, +24)
0x00000000040061b0:     60 00 03 10     MOVqw R0, R0 (+3, +0)
0x00000000040061b4:     79 02 24 12     MOVREL R2, 0x1224
0x00000000040061b8:     79 03 98 01     MOVREL R3, 0x0198
0x00000000040061bc:     79 04 14 12     MOVREL R4, 0x1214
0x00000000040061c0:     20 c4   MOVqw R4, @R4
0x00000000040061c2:     77 35 00 00     MOVIqw R5, 0x0000
0x00000000040061c6:     79 06 b0 0e     MOVREL R6, 0x0eb0
0x00000000040061ca:     1f e6   MOVdw R6, @R6
0x00000000040061cc:     1f a1   MOVdw R1, @R2
0x00000000040061ce:     16 61   XOR R1, R6
0x00000000040061d0:     1f 1b   MOVdw @R3, R1
0x00000000040061d2:     77 31 04 00     MOVIqw R1, 0x0004
0x00000000040061d6:     4c 12   ADD R2, R1
0x00000000040061d8:     4c 13   ADD R3, R1
0x00000000040061da:     4c 15   ADD R5, R1
0x00000000040061dc:     45 54   CMPeq R4, R5
0x00000000040061de:     82 f6   JMP8cc 0xf6
0x00000000040061e0:     79 01 a6 0e     MOVREL R1, 0x0ea6
0x00000000040061e4:     20 91   MOVqw R1, @R1
0x00000000040061e6:     6b 01   PUSH R1
0x00000000040061e8:     83 10 66 01 00 00       CALL R0 (0x00000166)
0x00000000040061ee:     6c 01   POP R1
0x00000000040061f0:     77 31 01 00     MOVIqw R1, 0x0001
0x00000000040061f4:     45 71   CMPeq R1, R7
0x00000000040061f6:     81 90 56 01 00 00       JMPcc R0 (0x00000156)
0x00000000040061fc:     79 03 00 0e     MOVREL R3, 0x0e00
0x0000000004006200:     20 b3   MOVqw R3, @R3
0x0000000004006202:     72 b3 89 21     MOVnw R3, @R3 (+9, +24)
0x0000000004006206:     79 01 70 0e     MOVREL R1, 0x0e70
0x000000000400620a:     35 01   PUSHn R1
0x000000000400620c:     77 31 08 00     MOVIqw R1, 0x0008
0x0000000004006210:     35 01   PUSHn R1
0x0000000004006212:     79 01 74 0e     MOVREL R1, 0x0e74
0x0000000004006216:     35 01   PUSHn R1
0x0000000004006218:     83 2b 28 18 00 20       CALLEXa @R3 (+40, +24)
0x000000000400621e:     60 00 03 10     MOVqw R0, R0 (+3, +0)
0x0000000004006222:     79 02 1e 19     MOVREL R2, 0x191e
0x0000000004006226:     79 03 2a 01     MOVREL R3, 0x012a
0x000000000400622a:     79 04 0e 19     MOVREL R4, 0x190e
0x000000000400622e:     20 c4   MOVqw R4, @R4
0x0000000004006230:     77 35 00 00     MOVIqw R5, 0x0000
0x0000000004006234:     79 06 42 0e     MOVREL R6, 0x0e42
0x0000000004006238:     1f e6   MOVdw R6, @R6
0x000000000400623a:     1f a1   MOVdw R1, @R2
0x000000000400623c:     16 61   XOR R1, R6
0x000000000400623e:     1f 1b   MOVdw @R3, R1
0x0000000004006240:     77 31 04 00     MOVIqw R1, 0x0004
0x0000000004006244:     4c 12   ADD R2, R1
0x0000000004006246:     4c 13   ADD R3, R1
0x0000000004006248:     4c 15   ADD R5, R1
0x000000000400624a:     45 54   CMPeq R4, R5
0x000000000400624c:     82 f6   JMP8cc 0xf6
0x000000000400624e:     79 01 40 0e     MOVREL R1, 0x0e40
0x0000000004006252:     20 91   MOVqw R1, @R1
0x0000000004006254:     6b 01   PUSH R1
0x0000000004006256:     83 10 f8 00 00 00       CALL R0 (0x000000f8)
0x000000000400625c:     6c 01   POP R1
0x000000000400625e:     77 31 01 00     MOVIqw R1, 0x0001
0x0000000004006262:     45 71   CMPeq R1, R7
0x0000000004006264:     82 76   JMP8cc 0x76
0x0000000004006266:     79 03 96 0d     MOVREL R3, 0x0d96
0x000000000400626a:     20 b3   MOVqw R3, @R3
0x000000000400626c:     72 b3 89 21     MOVnw R3, @R3 (+9, +24)
0x0000000004006270:     79 01 06 0e     MOVREL R1, 0x0e06
0x0000000004006274:     35 01   PUSHn R1
0x0000000004006276:     77 31 08 00     MOVIqw R1, 0x0008
0x000000000400627a:     35 01   PUSHn R1
0x000000000400627c:     79 01 12 0e     MOVREL R1, 0x0e12
0x0000000004006280:     35 01   PUSHn R1
0x0000000004006282:     83 2b 28 18 00 20       CALLEXa @R3 (+40, +24)
0x0000000004006288:     60 00 03 10     MOVqw R0, R0 (+3, +0)
0x000000000400628c:     79 02 ec 20     MOVREL R2, 0x20ec
0x0000000004006290:     79 03 c0 00     MOVREL R3, 0x00c0
0x0000000004006294:     79 04 dc 20     MOVREL R4, 0x20dc
0x0000000004006298:     20 c4   MOVqw R4, @R4
0x000000000400629a:     77 35 00 00     MOVIqw R5, 0x0000
0x000000000400629e:     79 06 d8 0d     MOVREL R6, 0x0dd8
0x00000000040062a2:     1f e6   MOVdw R6, @R6
0x00000000040062a4:     1f a1   MOVdw R1, @R2
0x00000000040062a6:     16 61   XOR R1, R6
0x00000000040062a8:     1f 1b   MOVdw @R3, R1
0x00000000040062aa:     77 31 04 00     MOVIqw R1, 0x0004
0x00000000040062ae:     4c 12   ADD R2, R1
0x00000000040062b0:     4c 13   ADD R3, R1
0x00000000040062b2:     4c 15   ADD R5, R1
0x00000000040062b4:     45 54   CMPeq R4, R5
0x00000000040062b6:     82 f6   JMP8cc 0xf6
0x00000000040062b8:     79 03 44 0d     MOVREL R3, 0x0d44
0x00000000040062bc:     20 b3   MOVqw R3, @R3
0x00000000040062be:     72 b3 89 21     MOVnw R3, @R3 (+9, +24)
0x00000000040062c2:     79 01 b4 0d     MOVREL R1, 0x0db4
0x00000000040062c6:     35 01   PUSHn R1
0x00000000040062c8:     77 31 08 00     MOVIqw R1, 0x0008
0x00000000040062cc:     35 01   PUSHn R1
0x00000000040062ce:     79 01 c8 0d     MOVREL R1, 0x0dc8
0x00000000040062d2:     35 01   PUSHn R1
0x00000000040062d4:     83 2b 28 18 00 20       CALLEXa @R3 (+40, +24)
0x00000000040062da:     60 00 03 10     MOVqw R0, R0 (+3, +0)
0x00000000040062de:     79 01 98 0d     MOVREL R1, 0x0d98
0x00000000040062e2:     77 32 00 00     MOVIqw R2, 0x0000
0x00000000040062e6:     1f 92   MOVdw R2, @R1
0x00000000040062e8:     35 02   PUSHn R2
0x00000000040062ea:     79 01 ac 0d     MOVREL R1, 0x0dac
0x00000000040062ee:     20 91   MOVqw R1, @R1
0x00000000040062f0:     6b 01   PUSH R1
0x00000000040062f2:     83 10 5c 00 00 00       CALL R0 (0x0000005c)
0x00000000040062f8:     60 00 02 10     MOVqw R0, R0 (+2, +0)
0x00000000040062fc:     77 31 01 00     MOVIqw R1, 0x0001
0x0000000004006300:     45 71   CMPeq R1, R7
0x0000000004006302:     82 27   JMP8cc 0x27
0x0000000004006304:     79 02 7a 0d     MOVREL R2, 0x0d7a
0x0000000004006308:     79 03 96 0d     MOVREL R3, 0x0d96
0x000000000400630c:     77 34 00 00     MOVIqw R4, 0x0000
0x0000000004006310:     77 35 20 00     MOVIqw R5, 0x0020
0x0000000004006314:     1d ab   MOVbw @R3, @R2
0x0000000004006316:     77 31 01 00     MOVIqw R1, 0x0001
0x000000000400631a:     4c 12   ADD R2, R1
0x000000000400631c:     4c 14   ADD R4, R1
0x000000000400631e:     77 31 02 00     MOVIqw R1, 0x0002
0x0000000004006322:     4c 13   ADD R3, R1
0x0000000004006324:     45 54   CMPeq R4, R5
0x0000000004006326:     82 f6   JMP8cc 0xf6
0x0000000004006328:     79 01 be 0d     MOVREL R1, 0x0dbe
0x000000000400632c:     6b 01   PUSH R1
0x000000000400632e:     83 10 cc fc ff ff       CALL R0 (0xfffffccc)
0x0000000004006334:     6c 01   POP R1
0x0000000004006336:     79 01 68 0d     MOVREL R1, 0x0d68
0x000000000400633a:     6b 01   PUSH R1
0x000000000400633c:     83 10 be fc ff ff       CALL R0 (0xfffffcbe)
0x0000000004006342:     6c 01   POP R1
0x0000000004006344:     79 01 b0 0d     MOVREL R1, 0x0db0
0x0000000004006348:     6b 01   PUSH R1
0x000000000400634a:     83 10 b0 fc ff ff       CALL R0 (0xfffffcb0)
0x0000000004006350:     6c 01   POP R1
0x0000000004006352:     04 00   RET
