
BABY_REV.EXE:     ファイル形式 binary


セクション .data の逆アセンブル:

00000000 <.data>:
       0:	4d                   	dec    %bp
       1:	5a                   	pop    %dx
       2:	a0 01 21             	mov    0x2101,%al
       5:	00 0b                	add    %cl,(%bp,%di)
       7:	00 20                	add    %ah,(%bx,%si)
       9:	00 00                	add    %al,(%bx,%si)
       b:	00 ff                	add    %bh,%bh
       d:	ff f2                	push   %dx
       f:	03 80 00 00          	add    0x0(%bx,%si),%ax
      13:	00 00                	add    %al,(%bx,%si)
      15:	00 00                	add    %al,(%bx,%si)
      17:	00 22                	add    %ah,(%bp,%si)
      19:	00 00                	add    %al,(%bx,%si)
      1b:	00 01                	add    %al,(%bx,%di)
      1d:	00 fb                	add    %bh,%bl
      1f:	20 72 6a             	and    %dh,0x6a(%bp,%si)
      22:	01 00                	add    %ax,(%bx,%si)
      24:	00 00                	add    %al,(%bx,%si)
      26:	38 04                	cmp    %al,(%si)
      28:	00 00                	add    %al,(%bx,%si)
      2a:	07                   	pop    %es
      2b:	02 00                	add    (%bx,%si),%al
      2d:	00 df                	add    %bl,%bh
      2f:	08 00                	or     %al,(%bx,%si)
      31:	00 6a 06             	add    %ch,0x6(%bp,%si)
      34:	00 00                	add    %al,(%bx,%si)
      36:	c9                   	leave  
      37:	0d 00 00             	or     $0x0,%ax
      3a:	54                   	push   %sp
      3b:	0b 00                	or     (%bx,%si),%ax
      3d:	00 3e 10 00          	add    %bh,0x10
      41:	00 0a                	add    %cl,(%bp,%si)
      43:	14 00                	adc    $0x0,%al
      45:	00 f1                	add    %dh,%cl
      47:	13 00                	adc    (%bx,%si),%ax
      49:	00 b3 12 00          	add    %dh,0x12(%bp,%di)
	...
     1fd:	00 00                	add    %al,(%bx,%si)
     1ff:	00 ba 7f 03          	add    %bh,0x37f(%bp,%si)
     203:	2e 89 16 f8 01       	mov    %dx,%cs:0x1f8
     208:	b4 30                	mov    $0x30,%ah
     20a:	cd 21                	int    $0x21
     20c:	8b 2e 02 00          	mov    0x2,%bp
     210:	8b 1e 2c 00          	mov    0x2c,%bx
     214:	8e da                	mov    %dx,%ds
     216:	a3 92 00             	mov    %ax,0x92
     219:	8c 06 90 00          	mov    %es,0x90
     21d:	89 1e 8c 00          	mov    %bx,0x8c
     221:	89 2e ac 00          	mov    %bp,0xac
     225:	c7 06 96 00 ff ff    	movw   $0xffff,0x96
     22b:	e8 34 01             	call   0x362
     22e:	c4 3e 8a 00          	les    0x8a,%di
     232:	8b c7                	mov    %di,%ax
     234:	8b d8                	mov    %ax,%bx
     236:	b9 ff 7f             	mov    $0x7fff,%cx
     239:	26 81 3d 38 37       	cmpw   $0x3738,%es:(%di)
     23e:	75 19                	jne    0x259
     240:	26 8b 55 02          	mov    %es:0x2(%di),%dx
     244:	80 fa 3d             	cmp    $0x3d,%dl
     247:	75 10                	jne    0x259
     249:	80 e6 df             	and    $0xdf,%dh
     24c:	ff 06 96 00          	incw   0x96
     250:	80 fe 59             	cmp    $0x59,%dh
     253:	75 04                	jne    0x259
     255:	ff 06 96 00          	incw   0x96
     259:	f2 ae                	repnz scas %es:(%di),%al
     25b:	e3 61                	jcxz   0x2be
     25d:	43                   	inc    %bx
     25e:	26 38 05             	cmp    %al,%es:(%di)
     261:	75 d6                	jne    0x239
     263:	80 cd 80             	or     $0x80,%ch
     266:	f7 d9                	neg    %cx
     268:	89 0e 8a 00          	mov    %cx,0x8a
     26c:	b9 01 00             	mov    $0x1,%cx
     26f:	d3 e3                	shl    %cl,%bx
     271:	83 c3 08             	add    $0x8,%bx
     274:	83 e3 f8             	and    $0xfff8,%bx
     277:	89 1e 8e 00          	mov    %bx,0x8e
     27b:	8c da                	mov    %ds,%dx
     27d:	2b ea                	sub    %dx,%bp
     27f:	8b 3e 88 04          	mov    0x488,%di
     283:	81 ff 00 02          	cmp    $0x200,%di
     287:	73 07                	jae    0x290
     289:	bf 00 02             	mov    $0x200,%di
     28c:	89 3e 88 04          	mov    %di,0x488
     290:	81 c7 30 07          	add    $0x730,%di
     294:	72 28                	jb     0x2be
     296:	03 3e 86 04          	add    0x486,%di
     29a:	72 22                	jb     0x2be
     29c:	b1 04                	mov    $0x4,%cl
     29e:	d3 ef                	shr    %cl,%di
     2a0:	47                   	inc    %di
     2a1:	3b ef                	cmp    %di,%bp
     2a3:	72 19                	jb     0x2be
     2a5:	83 3e 88 04 00       	cmpw   $0x0,0x488
     2aa:	74 07                	je     0x2b3
     2ac:	83 3e 86 04 00       	cmpw   $0x0,0x486
     2b1:	75 0e                	jne    0x2c1
     2b3:	bf 00 10             	mov    $0x1000,%di
     2b6:	3b ef                	cmp    %di,%bp
     2b8:	77 07                	ja     0x2c1
     2ba:	8b fd                	mov    %bp,%di
     2bc:	eb 03                	jmp    0x2c1
     2be:	e9 21 01             	jmp    0x3e2
     2c1:	8b df                	mov    %di,%bx
     2c3:	03 da                	add    %dx,%bx
     2c5:	89 1e a4 00          	mov    %bx,0xa4
     2c9:	89 1e a8 00          	mov    %bx,0xa8
     2cd:	a1 90 00             	mov    0x90,%ax
     2d0:	2b d8                	sub    %ax,%bx
     2d2:	8e c0                	mov    %ax,%es
     2d4:	b4 4a                	mov    $0x4a,%ah
     2d6:	57                   	push   %di
     2d7:	cd 21                	int    $0x21
     2d9:	5f                   	pop    %di
     2da:	d3 e7                	shl    %cl,%di
     2dc:	fa                   	cli    
     2dd:	8e d2                	mov    %dx,%ss
     2df:	8b e7                	mov    %di,%sp
     2e1:	fb                   	sti    
     2e2:	33 c0                	xor    %ax,%ax
     2e4:	2e 8e 06 f8 01       	mov    %cs:0x1f8,%es
     2e9:	bf d8 06             	mov    $0x6d8,%di
     2ec:	b9 30 07             	mov    $0x730,%cx
     2ef:	2b cf                	sub    %di,%cx
     2f1:	f3 aa                	rep stos %al,%es:(%di)
     2f3:	0e                   	push   %cs
     2f4:	ff 16 ca 06          	call   *0x6ca
     2f8:	e8 f4 14             	call   0x17ef
     2fb:	e8 dc 15             	call   0x18da
     2fe:	b4 00                	mov    $0x0,%ah
     300:	cd 1a                	int    $0x1a
     302:	89 16 98 00          	mov    %dx,0x98
     306:	89 0e 9a 00          	mov    %cx,0x9a
     30a:	ff 16 ce 06          	call   *0x6ce
     30e:	ff 36 88 00          	pushw  0x88
     312:	ff 36 86 00          	pushw  0x86
     316:	ff 36 84 00          	pushw  0x84
     31a:	e8 be 12             	call   0x15db
     31d:	50                   	push   %ax
     31e:	e8 99 14             	call   0x17ba
     321:	2e 8e 1e f8 01       	mov    %cs:0x1f8,%ds
     326:	e8 7c 00             	call   0x3a5
     329:	0e                   	push   %cs
     32a:	ff 16 cc 06          	call   *0x6cc
     32e:	33 c0                	xor    %ax,%ax
     330:	8b f0                	mov    %ax,%si
     332:	b9 2f 00             	mov    $0x2f,%cx
     335:	90                   	nop
     336:	fc                   	cld    
     337:	02 04                	add    (%si),%al
     339:	80 d4 00             	adc    $0x0,%ah
     33c:	46                   	inc    %si
     33d:	e2 f8                	loop   0x337
     33f:	2d 37 0d             	sub    $0xd37,%ax
     342:	90                   	nop
     343:	74 0a                	je     0x34f
     345:	b9 19 00             	mov    $0x19,%cx
     348:	90                   	nop
     349:	ba 2f 00             	mov    $0x2f,%dx
     34c:	e8 8b 00             	call   0x3da
     34f:	8b ec                	mov    %sp,%bp
     351:	b4 4c                	mov    $0x4c,%ah
     353:	8a 46 02             	mov    0x2(%bp),%al
     356:	cd 21                	int    $0x21
     358:	b9 0e 00             	mov    $0xe,%cx
     35b:	90                   	nop
     35c:	ba 48 00             	mov    $0x48,%dx
     35f:	e9 87 00             	jmp    0x3e9
     362:	1e                   	push   %ds
     363:	b8 00 35             	mov    $0x3500,%ax
     366:	cd 21                	int    $0x21
     368:	89 1e 74 00          	mov    %bx,0x74
     36c:	8c 06 76 00          	mov    %es,0x76
     370:	b8 04 35             	mov    $0x3504,%ax
     373:	cd 21                	int    $0x21
     375:	89 1e 78 00          	mov    %bx,0x78
     379:	8c 06 7a 00          	mov    %es,0x7a
     37d:	b8 05 35             	mov    $0x3505,%ax
     380:	cd 21                	int    $0x21
     382:	89 1e 7c 00          	mov    %bx,0x7c
     386:	8c 06 7e 00          	mov    %es,0x7e
     38a:	b8 06 35             	mov    $0x3506,%ax
     38d:	cd 21                	int    $0x21
     38f:	89 1e 80 00          	mov    %bx,0x80
     393:	8c 06 82 00          	mov    %es,0x82
     397:	b8 00 25             	mov    $0x2500,%ax
     39a:	8c ca                	mov    %cs,%dx
     39c:	8e da                	mov    %dx,%ds
     39e:	ba 58 01             	mov    $0x158,%dx
     3a1:	cd 21                	int    $0x21
     3a3:	1f                   	pop    %ds
     3a4:	c3                   	ret    
     3a5:	1e                   	push   %ds
     3a6:	b8 00 25             	mov    $0x2500,%ax
     3a9:	c5 16 74 00          	lds    0x74,%dx
     3ad:	cd 21                	int    $0x21
     3af:	1f                   	pop    %ds
     3b0:	1e                   	push   %ds
     3b1:	b8 04 25             	mov    $0x2504,%ax
     3b4:	c5 16 78 00          	lds    0x78,%dx
     3b8:	cd 21                	int    $0x21
     3ba:	1f                   	pop    %ds
     3bb:	1e                   	push   %ds
     3bc:	b8 05 25             	mov    $0x2505,%ax
     3bf:	c5 16 7c 00          	lds    0x7c,%dx
     3c3:	cd 21                	int    $0x21
     3c5:	1f                   	pop    %ds
     3c6:	1e                   	push   %ds
     3c7:	b8 06 25             	mov    $0x2506,%ax
     3ca:	c5 16 80 00          	lds    0x80,%dx
     3ce:	cd 21                	int    $0x21
     3d0:	1f                   	pop    %ds
     3d1:	c3                   	ret    
     3d2:	c7 06 96 00 00 00    	movw   $0x0,0x96
     3d8:	cb                   	lret   
     3d9:	c3                   	ret    
     3da:	b4 40                	mov    $0x40,%ah
     3dc:	bb 02 00             	mov    $0x2,%bx
     3df:	cd 21                	int    $0x21
     3e1:	c3                   	ret    
     3e2:	b9 1e 00             	mov    $0x1e,%cx
     3e5:	90                   	nop
     3e6:	ba 56 00             	mov    $0x56,%dx
     3e9:	2e 8e 1e f8 01       	mov    %cs:0x1f8,%ds
     3ee:	e8 e9 ff             	call   0x3da
     3f1:	b8 03 00             	mov    $0x3,%ax
     3f4:	50                   	push   %ax
     3f5:	e8 29 ff             	call   0x321
     3f8:	00 00                	add    %al,(%bx,%si)
     3fa:	55                   	push   %bp
     3fb:	8b ec                	mov    %sp,%bp
     3fd:	56                   	push   %si
     3fe:	39 26 9e 00          	cmp    %sp,0x9e
     402:	72 05                	jb     0x409
     404:	9a 8b 33 00 00       	lcall  $0x0,$0x338b
     409:	8b 76 04             	mov    0x4(%bp),%si
     40c:	80 3c db             	cmpb   $0xdb,(%si)
     40f:	74 03                	je     0x414
     411:	e9 12 02             	jmp    0x626
     414:	80 7c 01 db          	cmpb   $0xdb,0x1(%si)
     418:	74 03                	je     0x41d
     41a:	e9 09 02             	jmp    0x626
     41d:	80 7c 02 db          	cmpb   $0xdb,0x2(%si)
     421:	74 03                	je     0x426
     423:	e9 00 02             	jmp    0x626
     426:	80 7c 03 bb          	cmpb   $0xbb,0x3(%si)
     42a:	74 03                	je     0x42f
     42c:	e9 f7 01             	jmp    0x626
     42f:	80 7c 04 20          	cmpb   $0x20,0x4(%si)
     433:	74 03                	je     0x438
     435:	e9 ee 01             	jmp    0x626
     438:	80 7c 05 20          	cmpb   $0x20,0x5(%si)
     43c:	74 03                	je     0x441
     43e:	e9 e5 01             	jmp    0x626
     441:	80 7c 06 20          	cmpb   $0x20,0x6(%si)
     445:	74 03                	je     0x44a
     447:	e9 dc 01             	jmp    0x626
     44a:	80 7c 07 db          	cmpb   $0xdb,0x7(%si)
     44e:	74 03                	je     0x453
     450:	e9 d3 01             	jmp    0x626
     453:	80 7c 08 db          	cmpb   $0xdb,0x8(%si)
     457:	74 03                	je     0x45c
     459:	e9 ca 01             	jmp    0x626
     45c:	80 7c 09 bb          	cmpb   $0xbb,0x9(%si)
     460:	74 03                	je     0x465
     462:	e9 c1 01             	jmp    0x626
     465:	80 7c 0a 20          	cmpb   $0x20,0xa(%si)
     469:	74 03                	je     0x46e
     46b:	e9 b8 01             	jmp    0x626
     46e:	80 7c 0b db          	cmpb   $0xdb,0xb(%si)
     472:	74 03                	je     0x477
     474:	e9 af 01             	jmp    0x626
     477:	80 7c 0c db          	cmpb   $0xdb,0xc(%si)
     47b:	74 03                	je     0x480
     47d:	e9 a6 01             	jmp    0x626
     480:	80 7c 0d bb          	cmpb   $0xbb,0xd(%si)
     484:	74 03                	je     0x489
     486:	e9 9d 01             	jmp    0x626
     489:	80 7c 0e 20          	cmpb   $0x20,0xe(%si)
     48d:	74 03                	je     0x492
     48f:	e9 94 01             	jmp    0x626
     492:	80 7c 0f db          	cmpb   $0xdb,0xf(%si)
     496:	74 03                	je     0x49b
     498:	e9 8b 01             	jmp    0x626
     49b:	80 7c 10 db          	cmpb   $0xdb,0x10(%si)
     49f:	74 03                	je     0x4a4
     4a1:	e9 82 01             	jmp    0x626
     4a4:	80 7c 11 db          	cmpb   $0xdb,0x11(%si)
     4a8:	74 03                	je     0x4ad
     4aa:	e9 79 01             	jmp    0x626
     4ad:	80 7c 12 db          	cmpb   $0xdb,0x12(%si)
     4b1:	74 03                	je     0x4b6
     4b3:	e9 70 01             	jmp    0x626
     4b6:	80 7c 13 db          	cmpb   $0xdb,0x13(%si)
     4ba:	74 03                	je     0x4bf
     4bc:	e9 67 01             	jmp    0x626
     4bf:	80 7c 14 db          	cmpb   $0xdb,0x14(%si)
     4c3:	74 03                	je     0x4c8
     4c5:	e9 5e 01             	jmp    0x626
     4c8:	80 7c 15 bb          	cmpb   $0xbb,0x15(%si)
     4cc:	74 03                	je     0x4d1
     4ce:	e9 55 01             	jmp    0x626
     4d1:	80 7c 16 db          	cmpb   $0xdb,0x16(%si)
     4d5:	74 03                	je     0x4da
     4d7:	e9 4c 01             	jmp    0x626
     4da:	80 7c 17 db          	cmpb   $0xdb,0x17(%si)
     4de:	74 03                	je     0x4e3
     4e0:	e9 43 01             	jmp    0x626
     4e3:	80 7c 18 db          	cmpb   $0xdb,0x18(%si)
     4e7:	74 03                	je     0x4ec
     4e9:	e9 3a 01             	jmp    0x626
     4ec:	80 7c 19 db          	cmpb   $0xdb,0x19(%si)
     4f0:	74 03                	je     0x4f5
     4f2:	e9 31 01             	jmp    0x626
     4f5:	80 7c 1a db          	cmpb   $0xdb,0x1a(%si)
     4f9:	74 03                	je     0x4fe
     4fb:	e9 28 01             	jmp    0x626
     4fe:	80 7c 1b db          	cmpb   $0xdb,0x1b(%si)
     502:	74 03                	je     0x507
     504:	e9 1f 01             	jmp    0x626
     507:	80 7c 1c bb          	cmpb   $0xbb,0x1c(%si)
     50b:	74 03                	je     0x510
     50d:	e9 16 01             	jmp    0x626
     510:	80 7c 1d 20          	cmpb   $0x20,0x1d(%si)
     514:	74 03                	je     0x519
     516:	e9 0d 01             	jmp    0x626
     519:	80 7c 1e 20          	cmpb   $0x20,0x1e(%si)
     51d:	74 03                	je     0x522
     51f:	e9 04 01             	jmp    0x626
     522:	80 7c 1f 20          	cmpb   $0x20,0x1f(%si)
     526:	74 03                	je     0x52b
     528:	e9 fb 00             	jmp    0x626
     52b:	80 7c 20 20          	cmpb   $0x20,0x20(%si)
     52f:	74 03                	je     0x534
     531:	e9 f2 00             	jmp    0x626
     534:	80 7c 21 20          	cmpb   $0x20,0x21(%si)
     538:	74 03                	je     0x53d
     53a:	e9 e9 00             	jmp    0x626
     53d:	80 7c 22 20          	cmpb   $0x20,0x22(%si)
     541:	74 03                	je     0x546
     543:	e9 e0 00             	jmp    0x626
     546:	80 7c 23 20          	cmpb   $0x20,0x23(%si)
     54a:	74 03                	je     0x54f
     54c:	e9 d7 00             	jmp    0x626
     54f:	80 7c 24 20          	cmpb   $0x20,0x24(%si)
     553:	74 03                	je     0x558
     555:	e9 ce 00             	jmp    0x626
     558:	80 7c 25 20          	cmpb   $0x20,0x25(%si)
     55c:	74 03                	je     0x561
     55e:	e9 c5 00             	jmp    0x626
     561:	80 7c 26 db          	cmpb   $0xdb,0x26(%si)
     565:	74 03                	je     0x56a
     567:	e9 bc 00             	jmp    0x626
     56a:	80 7c 27 db          	cmpb   $0xdb,0x27(%si)
     56e:	74 03                	je     0x573
     570:	e9 b3 00             	jmp    0x626
     573:	80 7c 28 db          	cmpb   $0xdb,0x28(%si)
     577:	74 03                	je     0x57c
     579:	e9 aa 00             	jmp    0x626
     57c:	80 7c 29 db          	cmpb   $0xdb,0x29(%si)
     580:	74 03                	je     0x585
     582:	e9 a1 00             	jmp    0x626
     585:	80 7c 2a db          	cmpb   $0xdb,0x2a(%si)
     589:	74 03                	je     0x58e
     58b:	e9 98 00             	jmp    0x626
     58e:	80 7c 2b db          	cmpb   $0xdb,0x2b(%si)
     592:	74 03                	je     0x597
     594:	e9 8f 00             	jmp    0x626
     597:	80 7c 2c db          	cmpb   $0xdb,0x2c(%si)
     59b:	74 03                	je     0x5a0
     59d:	e9 86 00             	jmp    0x626
     5a0:	80 7c 2d bb          	cmpb   $0xbb,0x2d(%si)
     5a4:	74 03                	je     0x5a9
     5a6:	e9 7d 00             	jmp    0x626
     5a9:	80 7c 2e db          	cmpb   $0xdb,0x2e(%si)
     5ad:	74 03                	je     0x5b2
     5af:	e9 74 00             	jmp    0x626
     5b2:	80 7c 2f db          	cmpb   $0xdb,0x2f(%si)
     5b6:	74 03                	je     0x5bb
     5b8:	e9 6b 00             	jmp    0x626
     5bb:	80 7c 30 bb          	cmpb   $0xbb,0x30(%si)
     5bf:	74 03                	je     0x5c4
     5c1:	e9 62 00             	jmp    0x626
     5c4:	80 7c 31 20          	cmpb   $0x20,0x31(%si)
     5c8:	74 03                	je     0x5cd
     5ca:	e9 59 00             	jmp    0x626
     5cd:	80 7c 32 20          	cmpb   $0x20,0x32(%si)
     5d1:	75 53                	jne    0x626
     5d3:	80 7c 33 20          	cmpb   $0x20,0x33(%si)
     5d7:	75 4d                	jne    0x626
     5d9:	80 7c 34 20          	cmpb   $0x20,0x34(%si)
     5dd:	75 47                	jne    0x626
     5df:	80 7c 35 20          	cmpb   $0x20,0x35(%si)
     5e3:	75 41                	jne    0x626
     5e5:	80 7c 36 20          	cmpb   $0x20,0x36(%si)
     5e9:	75 3b                	jne    0x626
     5eb:	80 7c 37 db          	cmpb   $0xdb,0x37(%si)
     5ef:	75 35                	jne    0x626
     5f1:	80 7c 38 db          	cmpb   $0xdb,0x38(%si)
     5f5:	75 2f                	jne    0x626
     5f7:	80 7c 39 db          	cmpb   $0xdb,0x39(%si)
     5fb:	75 29                	jne    0x626
     5fd:	80 7c 3a db          	cmpb   $0xdb,0x3a(%si)
     601:	75 23                	jne    0x626
     603:	80 7c 3b db          	cmpb   $0xdb,0x3b(%si)
     607:	75 1d                	jne    0x626
     609:	80 7c 3c bb          	cmpb   $0xbb,0x3c(%si)
     60d:	75 17                	jne    0x626
     60f:	80 7c 3d 20          	cmpb   $0x20,0x3d(%si)
     613:	75 11                	jne    0x626
     615:	80 7c 3e 20          	cmpb   $0x20,0x3e(%si)
     619:	75 0b                	jne    0x626
     61b:	80 7c 3f db          	cmpb   $0xdb,0x3f(%si)
     61f:	75 05                	jne    0x626
     621:	b8 01 00             	mov    $0x1,%ax
     624:	eb 02                	jmp    0x628
     626:	33 c0                	xor    %ax,%ax
     628:	5e                   	pop    %si
     629:	5d                   	pop    %bp
     62a:	c3                   	ret    
     62b:	55                   	push   %bp
     62c:	8b ec                	mov    %sp,%bp
     62e:	56                   	push   %si
     62f:	39 26 9e 00          	cmp    %sp,0x9e
     633:	72 05                	jb     0x63a
     635:	9a 8b 33 00 00       	lcall  $0x0,$0x338b
     63a:	8b 76 04             	mov    0x4(%bp),%si
     63d:	80 7c 40 db          	cmpb   $0xdb,0x40(%si)
     641:	74 03                	je     0x646
     643:	e9 12 02             	jmp    0x858
     646:	80 7c 41 db          	cmpb   $0xdb,0x41(%si)
     64a:	74 03                	je     0x64f
     64c:	e9 09 02             	jmp    0x858
     64f:	80 7c 42 db          	cmpb   $0xdb,0x42(%si)
     653:	74 03                	je     0x658
     655:	e9 00 02             	jmp    0x858
     658:	80 7c 43 db          	cmpb   $0xdb,0x43(%si)
     65c:	74 03                	je     0x661
     65e:	e9 f7 01             	jmp    0x858
     661:	80 7c 44 db          	cmpb   $0xdb,0x44(%si)
     665:	74 03                	je     0x66a
     667:	e9 ee 01             	jmp    0x858
     66a:	80 7c 45 bb          	cmpb   $0xbb,0x45(%si)
     66e:	74 03                	je     0x673
     670:	e9 e5 01             	jmp    0x858
     673:	80 7c 46 20          	cmpb   $0x20,0x46(%si)
     677:	74 03                	je     0x67c
     679:	e9 dc 01             	jmp    0x858
     67c:	80 7c 47 db          	cmpb   $0xdb,0x47(%si)
     680:	74 03                	je     0x685
     682:	e9 d3 01             	jmp    0x858
     685:	80 7c 48 db          	cmpb   $0xdb,0x48(%si)
     689:	74 03                	je     0x68e
     68b:	e9 ca 01             	jmp    0x858
     68e:	80 7c 49 bb          	cmpb   $0xbb,0x49(%si)
     692:	74 03                	je     0x697
     694:	e9 c1 01             	jmp    0x858
     697:	80 7c 4a 20          	cmpb   $0x20,0x4a(%si)
     69b:	74 03                	je     0x6a0
     69d:	e9 b8 01             	jmp    0x858
     6a0:	80 7c 4b db          	cmpb   $0xdb,0x4b(%si)
     6a4:	74 03                	je     0x6a9
     6a6:	e9 af 01             	jmp    0x858
     6a9:	80 7c 4c db          	cmpb   $0xdb,0x4c(%si)
     6ad:	74 03                	je     0x6b2
     6af:	e9 a6 01             	jmp    0x858
     6b2:	80 7c 4d bb          	cmpb   $0xbb,0x4d(%si)
     6b6:	74 03                	je     0x6bb
     6b8:	e9 9d 01             	jmp    0x858
     6bb:	80 7c 4e 0d          	cmpb   $0xd,0x4e(%si)
     6bf:	74 03                	je     0x6c4
     6c1:	e9 94 01             	jmp    0x858
     6c4:	80 7c 4f 0a          	cmpb   $0xa,0x4f(%si)
     6c8:	74 03                	je     0x6cd
     6ca:	e9 8b 01             	jmp    0x858
     6cd:	80 7c 50 db          	cmpb   $0xdb,0x50(%si)
     6d1:	74 03                	je     0x6d6
     6d3:	e9 82 01             	jmp    0x858
     6d6:	80 7c 51 db          	cmpb   $0xdb,0x51(%si)
     6da:	74 03                	je     0x6df
     6dc:	e9 79 01             	jmp    0x858
     6df:	80 7c 52 db          	cmpb   $0xdb,0x52(%si)
     6e3:	74 03                	je     0x6e8
     6e5:	e9 70 01             	jmp    0x858
     6e8:	80 7c 53 db          	cmpb   $0xdb,0x53(%si)
     6ec:	74 03                	je     0x6f1
     6ee:	e9 67 01             	jmp    0x858
     6f1:	80 7c 54 bb          	cmpb   $0xbb,0x54(%si)
     6f5:	74 03                	je     0x6fa
     6f7:	e9 5e 01             	jmp    0x858
     6fa:	80 7c 55 20          	cmpb   $0x20,0x55(%si)
     6fe:	74 03                	je     0x703
     700:	e9 55 01             	jmp    0x858
     703:	80 7c 56 20          	cmpb   $0x20,0x56(%si)
     707:	74 03                	je     0x70c
     709:	e9 4c 01             	jmp    0x858
     70c:	80 7c 57 db          	cmpb   $0xdb,0x57(%si)
     710:	74 03                	je     0x715
     712:	e9 43 01             	jmp    0x858
     715:	80 7c 58 db          	cmpb   $0xdb,0x58(%si)
     719:	74 03                	je     0x71e
     71b:	e9 3a 01             	jmp    0x858
     71e:	80 7c 59 ba          	cmpb   $0xba,0x59(%si)
     722:	74 03                	je     0x727
     724:	e9 31 01             	jmp    0x858
     727:	80 7c 5a db          	cmpb   $0xdb,0x5a(%si)
     72b:	74 03                	je     0x730
     72d:	e9 28 01             	jmp    0x858
     730:	80 7c 5b db          	cmpb   $0xdb,0x5b(%si)
     734:	74 03                	je     0x739
     736:	e9 1f 01             	jmp    0x858
     739:	80 7c 5c db          	cmpb   $0xdb,0x5c(%si)
     73d:	74 03                	je     0x742
     73f:	e9 16 01             	jmp    0x858
     742:	80 7c 5d ba          	cmpb   $0xba,0x5d(%si)
     746:	74 03                	je     0x74b
     748:	e9 0d 01             	jmp    0x858
     74b:	80 7c 5e db          	cmpb   $0xdb,0x5e(%si)
     74f:	74 03                	je     0x754
     751:	e9 04 01             	jmp    0x858
     754:	80 7c 5f db          	cmpb   $0xdb,0x5f(%si)
     758:	74 03                	je     0x75d
     75a:	e9 fb 00             	jmp    0x858
     75d:	80 7c 60 c9          	cmpb   $0xc9,0x60(%si)
     761:	74 03                	je     0x766
     763:	e9 f2 00             	jmp    0x858
     766:	80 7c 61 cd          	cmpb   $0xcd,0x61(%si)
     76a:	74 03                	je     0x76f
     76c:	e9 e9 00             	jmp    0x858
     76f:	80 7c 62 cd          	cmpb   $0xcd,0x62(%si)
     773:	74 03                	je     0x778
     775:	e9 e0 00             	jmp    0x858
     778:	80 7c 63 cd          	cmpb   $0xcd,0x63(%si)
     77c:	74 03                	je     0x781
     77e:	e9 d7 00             	jmp    0x858
     781:	80 7c 64 cd          	cmpb   $0xcd,0x64(%si)
     785:	74 03                	je     0x78a
     787:	e9 ce 00             	jmp    0x858
     78a:	80 7c 65 bc          	cmpb   $0xbc,0x65(%si)
     78e:	74 03                	je     0x793
     790:	e9 c5 00             	jmp    0x858
     793:	80 7c 66 c8          	cmpb   $0xc8,0x66(%si)
     797:	74 03                	je     0x79c
     799:	e9 bc 00             	jmp    0x858
     79c:	80 7c 67 cd          	cmpb   $0xcd,0x67(%si)
     7a0:	74 03                	je     0x7a5
     7a2:	e9 b3 00             	jmp    0x858
     7a5:	80 7c 68 cd          	cmpb   $0xcd,0x68(%si)
     7a9:	74 03                	je     0x7ae
     7ab:	e9 aa 00             	jmp    0x858
     7ae:	80 7c 69 cd          	cmpb   $0xcd,0x69(%si)
     7b2:	74 03                	je     0x7b7
     7b4:	e9 a1 00             	jmp    0x858
     7b7:	80 7c 6a cd          	cmpb   $0xcd,0x6a(%si)
     7bb:	74 03                	je     0x7c0
     7bd:	e9 98 00             	jmp    0x858
     7c0:	80 7c 6b db          	cmpb   $0xdb,0x6b(%si)
     7c4:	74 03                	je     0x7c9
     7c6:	e9 8f 00             	jmp    0x858
     7c9:	80 7c 6c db          	cmpb   $0xdb,0x6c(%si)
     7cd:	74 03                	je     0x7d2
     7cf:	e9 86 00             	jmp    0x858
     7d2:	80 7c 6d bb          	cmpb   $0xbb,0x6d(%si)
     7d6:	74 03                	je     0x7db
     7d8:	e9 7d 00             	jmp    0x858
     7db:	80 7c 6e 20          	cmpb   $0x20,0x6e(%si)
     7df:	74 03                	je     0x7e4
     7e1:	e9 74 00             	jmp    0x858
     7e4:	80 7c 6f 20          	cmpb   $0x20,0x6f(%si)
     7e8:	74 03                	je     0x7ed
     7ea:	e9 6b 00             	jmp    0x858
     7ed:	80 7c 70 20          	cmpb   $0x20,0x70(%si)
     7f1:	74 03                	je     0x7f6
     7f3:	e9 62 00             	jmp    0x858
     7f6:	80 7c 71 20          	cmpb   $0x20,0x71(%si)
     7fa:	74 03                	je     0x7ff
     7fc:	e9 59 00             	jmp    0x858
     7ff:	80 7c 72 20          	cmpb   $0x20,0x72(%si)
     803:	75 53                	jne    0x858
     805:	80 7c 73 20          	cmpb   $0x20,0x73(%si)
     809:	75 4d                	jne    0x858
     80b:	80 7c 74 20          	cmpb   $0x20,0x74(%si)
     80f:	75 47                	jne    0x858
     811:	80 7c 75 20          	cmpb   $0x20,0x75(%si)
     815:	75 41                	jne    0x858
     817:	80 7c 76 db          	cmpb   $0xdb,0x76(%si)
     81b:	75 3b                	jne    0x858
     81d:	80 7c 77 db          	cmpb   $0xdb,0x77(%si)
     821:	75 35                	jne    0x858
     823:	80 7c 78 c9          	cmpb   $0xc9,0x78(%si)
     827:	75 2f                	jne    0x858
     829:	80 7c 79 cd          	cmpb   $0xcd,0x79(%si)
     82d:	75 29                	jne    0x858
     82f:	80 7c 7a cd          	cmpb   $0xcd,0x7a(%si)
     833:	75 23                	jne    0x858
     835:	80 7c 7b cd          	cmpb   $0xcd,0x7b(%si)
     839:	75 1d                	jne    0x858
     83b:	80 7c 7c cd          	cmpb   $0xcd,0x7c(%si)
     83f:	75 17                	jne    0x858
     841:	80 7c 7d bc          	cmpb   $0xbc,0x7d(%si)
     845:	75 11                	jne    0x858
     847:	80 7c 7e db          	cmpb   $0xdb,0x7e(%si)
     84b:	75 0b                	jne    0x858
     84d:	80 7c 7f db          	cmpb   $0xdb,0x7f(%si)
     851:	75 05                	jne    0x858
     853:	b8 01 00             	mov    $0x1,%ax
     856:	eb 02                	jmp    0x85a
     858:	33 c0                	xor    %ax,%ax
     85a:	5e                   	pop    %si
     85b:	5d                   	pop    %bp
     85c:	c3                   	ret    
     85d:	55                   	push   %bp
     85e:	8b ec                	mov    %sp,%bp
     860:	56                   	push   %si
     861:	39 26 9e 00          	cmp    %sp,0x9e
     865:	72 05                	jb     0x86c
     867:	9a 8b 33 00 00       	lcall  $0x0,$0x338b
     86c:	8b 76 04             	mov    0x4(%bp),%si
     86f:	80 bc 80 00 ba       	cmpb   $0xba,0x80(%si)
     874:	74 03                	je     0x879
     876:	e9 54 02             	jmp    0xacd
     879:	80 bc 81 00 20       	cmpb   $0x20,0x81(%si)
     87e:	74 03                	je     0x883
     880:	e9 4a 02             	jmp    0xacd
     883:	80 bc 82 00 20       	cmpb   $0x20,0x82(%si)
     888:	74 03                	je     0x88d
     88a:	e9 40 02             	jmp    0xacd
     88d:	80 bc 83 00 20       	cmpb   $0x20,0x83(%si)
     892:	74 03                	je     0x897
     894:	e9 36 02             	jmp    0xacd
     897:	80 bc 84 00 20       	cmpb   $0x20,0x84(%si)
     89c:	74 03                	je     0x8a1
     89e:	e9 2c 02             	jmp    0xacd
     8a1:	80 bc 85 00 20       	cmpb   $0x20,0x85(%si)
     8a6:	74 03                	je     0x8ab
     8a8:	e9 22 02             	jmp    0xacd
     8ab:	80 bc 86 00 db       	cmpb   $0xdb,0x86(%si)
     8b0:	74 03                	je     0x8b5
     8b2:	e9 18 02             	jmp    0xacd
     8b5:	80 bc 87 00 db       	cmpb   $0xdb,0x87(%si)
     8ba:	74 03                	je     0x8bf
     8bc:	e9 0e 02             	jmp    0xacd
     8bf:	80 bc 88 00 c9       	cmpb   $0xc9,0x88(%si)
     8c4:	74 03                	je     0x8c9
     8c6:	e9 04 02             	jmp    0xacd
     8c9:	80 bc 89 00 cd       	cmpb   $0xcd,0x89(%si)
     8ce:	74 03                	je     0x8d3
     8d0:	e9 fa 01             	jmp    0xacd
     8d3:	80 bc 8a 00 cd       	cmpb   $0xcd,0x8a(%si)
     8d8:	74 03                	je     0x8dd
     8da:	e9 f0 01             	jmp    0xacd
     8dd:	80 bc 8b 00 db       	cmpb   $0xdb,0x8b(%si)
     8e2:	74 03                	je     0x8e7
     8e4:	e9 e6 01             	jmp    0xacd
     8e7:	80 bc 8c 00 db       	cmpb   $0xdb,0x8c(%si)
     8ec:	74 03                	je     0x8f1
     8ee:	e9 dc 01             	jmp    0xacd
     8f1:	80 bc 8d 00 bb       	cmpb   $0xbb,0x8d(%si)
     8f6:	74 03                	je     0x8fb
     8f8:	e9 d2 01             	jmp    0xacd
     8fb:	80 bc 8e 00 db       	cmpb   $0xdb,0x8e(%si)
     900:	74 03                	je     0x905
     902:	e9 c8 01             	jmp    0xacd
     905:	80 bc 8f 00 db       	cmpb   $0xdb,0x8f(%si)
     90a:	74 03                	je     0x90f
     90c:	e9 be 01             	jmp    0xacd
     90f:	80 bc 90 00 c9       	cmpb   $0xc9,0x90(%si)
     914:	74 03                	je     0x919
     916:	e9 b4 01             	jmp    0xacd
     919:	80 bc 91 00 cd       	cmpb   $0xcd,0x91(%si)
     91e:	74 03                	je     0x923
     920:	e9 aa 01             	jmp    0xacd
     923:	80 bc 92 00 cd       	cmpb   $0xcd,0x92(%si)
     928:	74 03                	je     0x92d
     92a:	e9 a0 01             	jmp    0xacd
     92d:	80 bc 93 00 cd       	cmpb   $0xcd,0x93(%si)
     932:	74 03                	je     0x937
     934:	e9 96 01             	jmp    0xacd
     937:	80 bc 94 00 cd       	cmpb   $0xcd,0x94(%si)
     93c:	74 03                	je     0x941
     93e:	e9 8c 01             	jmp    0xacd
     941:	80 bc 95 00 bc       	cmpb   $0xbc,0x95(%si)
     946:	74 03                	je     0x94b
     948:	e9 82 01             	jmp    0xacd
     94b:	80 bc 96 00 20       	cmpb   $0x20,0x96(%si)
     950:	74 03                	je     0x955
     952:	e9 78 01             	jmp    0xacd
     955:	80 bc 97 00 db       	cmpb   $0xdb,0x97(%si)
     95a:	74 03                	je     0x95f
     95c:	e9 6e 01             	jmp    0xacd
     95f:	80 bc 98 00 db       	cmpb   $0xdb,0x98(%si)
     964:	74 03                	je     0x969
     966:	e9 64 01             	jmp    0xacd
     969:	80 bc 99 00 ba       	cmpb   $0xba,0x99(%si)
     96e:	74 03                	je     0x973
     970:	e9 5a 01             	jmp    0xacd
     973:	80 bc 9a 00 db       	cmpb   $0xdb,0x9a(%si)
     978:	74 03                	je     0x97d
     97a:	e9 50 01             	jmp    0xacd
     97d:	80 bc 9b 00 db       	cmpb   $0xdb,0x9b(%si)
     982:	74 03                	je     0x987
     984:	e9 46 01             	jmp    0xacd
     987:	80 bc 9c 00 db       	cmpb   $0xdb,0x9c(%si)
     98c:	74 03                	je     0x991
     98e:	e9 3c 01             	jmp    0xacd
     991:	80 bc 9d 00 ba       	cmpb   $0xba,0x9d(%si)
     996:	74 03                	je     0x99b
     998:	e9 32 01             	jmp    0xacd
     99b:	80 bc 9e 00 0d       	cmpb   $0xd,0x9e(%si)
     9a0:	74 03                	je     0x9a5
     9a2:	e9 28 01             	jmp    0xacd
     9a5:	80 bc 9f 00 0a       	cmpb   $0xa,0x9f(%si)
     9aa:	74 03                	je     0x9af
     9ac:	e9 1e 01             	jmp    0xacd
     9af:	80 bc a0 00 db       	cmpb   $0xdb,0xa0(%si)
     9b4:	74 03                	je     0x9b9
     9b6:	e9 14 01             	jmp    0xacd
     9b9:	80 bc a1 00 db       	cmpb   $0xdb,0xa1(%si)
     9be:	74 03                	je     0x9c3
     9c0:	e9 0a 01             	jmp    0xacd
     9c3:	80 bc a2 00 c9       	cmpb   $0xc9,0xa2(%si)
     9c8:	74 03                	je     0x9cd
     9ca:	e9 00 01             	jmp    0xacd
     9cd:	80 bc a3 00 db       	cmpb   $0xdb,0xa3(%si)
     9d2:	74 03                	je     0x9d7
     9d4:	e9 f6 00             	jmp    0xacd
     9d7:	80 bc a4 00 db       	cmpb   $0xdb,0xa4(%si)
     9dc:	74 03                	je     0x9e1
     9de:	e9 ec 00             	jmp    0xacd
     9e1:	80 bc a5 00 bb       	cmpb   $0xbb,0xa5(%si)
     9e6:	74 03                	je     0x9eb
     9e8:	e9 e2 00             	jmp    0xacd
     9eb:	80 bc a6 00 20       	cmpb   $0x20,0xa6(%si)
     9f0:	74 03                	je     0x9f5
     9f2:	e9 d8 00             	jmp    0xacd
     9f5:	80 bc a7 00 db       	cmpb   $0xdb,0xa7(%si)
     9fa:	74 03                	je     0x9ff
     9fc:	e9 ce 00             	jmp    0xacd
     9ff:	80 bc a8 00 db       	cmpb   $0xdb,0xa8(%si)
     a04:	74 03                	je     0xa09
     a06:	e9 c4 00             	jmp    0xacd
     a09:	80 bc a9 00 ba       	cmpb   $0xba,0xa9(%si)
     a0e:	74 03                	je     0xa13
     a10:	e9 ba 00             	jmp    0xacd
     a13:	80 bc aa 00 c8       	cmpb   $0xc8,0xaa(%si)
     a18:	74 03                	je     0xa1d
     a1a:	e9 b0 00             	jmp    0xacd
     a1d:	80 bc ab 00 db       	cmpb   $0xdb,0xab(%si)
     a22:	74 03                	je     0xa27
     a24:	e9 a6 00             	jmp    0xacd
     a27:	80 bc ac 00 db       	cmpb   $0xdb,0xac(%si)
     a2c:	74 03                	je     0xa31
     a2e:	e9 9c 00             	jmp    0xacd
     a31:	80 bc ad 00 ba       	cmpb   $0xba,0xad(%si)
     a36:	74 03                	je     0xa3b
     a38:	e9 92 00             	jmp    0xacd
     a3b:	80 bc ae 00 db       	cmpb   $0xdb,0xae(%si)
     a40:	74 03                	je     0xa45
     a42:	e9 88 00             	jmp    0xacd
     a45:	80 bc af 00 db       	cmpb   $0xdb,0xaf(%si)
     a4a:	74 03                	je     0xa4f
     a4c:	e9 7e 00             	jmp    0xacd
     a4f:	80 bc b0 00 ba       	cmpb   $0xba,0xb0(%si)
     a54:	74 03                	je     0xa59
     a56:	e9 74 00             	jmp    0xacd
     a59:	80 bc b1 00 20       	cmpb   $0x20,0xb1(%si)
     a5e:	74 03                	je     0xa63
     a60:	e9 6a 00             	jmp    0xacd
     a63:	80 bc b2 00 20       	cmpb   $0x20,0xb2(%si)
     a68:	74 03                	je     0xa6d
     a6a:	e9 60 00             	jmp    0xacd
     a6d:	80 bc b3 00 20       	cmpb   $0x20,0xb3(%si)
     a72:	75 59                	jne    0xacd
     a74:	80 bc b4 00 20       	cmpb   $0x20,0xb4(%si)
     a79:	75 52                	jne    0xacd
     a7b:	80 bc b5 00 20       	cmpb   $0x20,0xb5(%si)
     a80:	75 4b                	jne    0xacd
     a82:	80 bc b6 00 20       	cmpb   $0x20,0xb6(%si)
     a87:	75 44                	jne    0xacd
     a89:	80 bc b7 00 db       	cmpb   $0xdb,0xb7(%si)
     a8e:	75 3d                	jne    0xacd
     a90:	80 bc b8 00 db       	cmpb   $0xdb,0xb8(%si)
     a95:	75 36                	jne    0xacd
     a97:	80 bc b9 00 db       	cmpb   $0xdb,0xb9(%si)
     a9c:	75 2f                	jne    0xacd
     a9e:	80 bc ba 00 db       	cmpb   $0xdb,0xba(%si)
     aa3:	75 28                	jne    0xacd
     aa5:	80 bc bb 00 db       	cmpb   $0xdb,0xbb(%si)
     aaa:	75 21                	jne    0xacd
     aac:	80 bc bc 00 c9       	cmpb   $0xc9,0xbc(%si)
     ab1:	75 1a                	jne    0xacd
     ab3:	80 bc bd 00 bc       	cmpb   $0xbc,0xbd(%si)
     ab8:	75 13                	jne    0xacd
     aba:	80 bc be 00 20       	cmpb   $0x20,0xbe(%si)
     abf:	75 0c                	jne    0xacd
     ac1:	80 bc bf 00 20       	cmpb   $0x20,0xbf(%si)
     ac6:	75 05                	jne    0xacd
     ac8:	b8 01 00             	mov    $0x1,%ax
     acb:	eb 02                	jmp    0xacf
     acd:	33 c0                	xor    %ax,%ax
     acf:	5e                   	pop    %si
     ad0:	5d                   	pop    %bp
     ad1:	c3                   	ret    
     ad2:	55                   	push   %bp
     ad3:	8b ec                	mov    %sp,%bp
     ad5:	56                   	push   %si
     ad6:	39 26 9e 00          	cmp    %sp,0x9e
     ada:	72 05                	jb     0xae1
     adc:	9a 8b 33 00 00       	lcall  $0x0,$0x338b
     ae1:	8b 76 04             	mov    0x4(%bp),%si
     ae4:	80 bc c0 00 20       	cmpb   $0x20,0xc0(%si)
     ae9:	74 03                	je     0xaee
     aeb:	e9 54 02             	jmp    0xd42
     aee:	80 bc c1 00 20       	cmpb   $0x20,0xc1(%si)
     af3:	74 03                	je     0xaf8
     af5:	e9 4a 02             	jmp    0xd42
     af8:	80 bc c2 00 20       	cmpb   $0x20,0xc2(%si)
     afd:	74 03                	je     0xb02
     aff:	e9 40 02             	jmp    0xd42
     b02:	80 bc c3 00 20       	cmpb   $0x20,0xc3(%si)
     b07:	74 03                	je     0xb0c
     b09:	e9 36 02             	jmp    0xd42
     b0c:	80 bc c4 00 20       	cmpb   $0x20,0xc4(%si)
     b11:	74 03                	je     0xb16
     b13:	e9 2c 02             	jmp    0xd42
     b16:	80 bc c5 00 20       	cmpb   $0x20,0xc5(%si)
     b1b:	74 03                	je     0xb20
     b1d:	e9 22 02             	jmp    0xd42
     b20:	80 bc c6 00 db       	cmpb   $0xdb,0xc6(%si)
     b25:	74 03                	je     0xb2a
     b27:	e9 18 02             	jmp    0xd42
     b2a:	80 bc c7 00 db       	cmpb   $0xdb,0xc7(%si)
     b2f:	74 03                	je     0xb34
     b31:	e9 0e 02             	jmp    0xd42
     b34:	80 bc c8 00 db       	cmpb   $0xdb,0xc8(%si)
     b39:	74 03                	je     0xb3e
     b3b:	e9 04 02             	jmp    0xd42
     b3e:	80 bc c9 00 db       	cmpb   $0xdb,0xc9(%si)
     b43:	74 03                	je     0xb48
     b45:	e9 fa 01             	jmp    0xd42
     b48:	80 bc ca 00 db       	cmpb   $0xdb,0xca(%si)
     b4d:	74 03                	je     0xb52
     b4f:	e9 f0 01             	jmp    0xd42
     b52:	80 bc cb 00 bb       	cmpb   $0xbb,0xcb(%si)
     b57:	74 03                	je     0xb5c
     b59:	e9 e6 01             	jmp    0xd42
     b5c:	80 bc cc 00 20       	cmpb   $0x20,0xcc(%si)
     b61:	74 03                	je     0xb66
     b63:	e9 dc 01             	jmp    0xd42
     b66:	80 bc cd 00 20       	cmpb   $0x20,0xcd(%si)
     b6b:	74 03                	je     0xb70
     b6d:	e9 d2 01             	jmp    0xd42
     b70:	80 bc ce 00 db       	cmpb   $0xdb,0xce(%si)
     b75:	74 03                	je     0xb7a
     b77:	e9 c8 01             	jmp    0xd42
     b7a:	80 bc cf 00 db       	cmpb   $0xdb,0xcf(%si)
     b7f:	74 03                	je     0xb84
     b81:	e9 be 01             	jmp    0xd42
     b84:	80 bc d0 00 ba       	cmpb   $0xba,0xd0(%si)
     b89:	74 03                	je     0xb8e
     b8b:	e9 b4 01             	jmp    0xd42
     b8e:	80 bc d1 00 20       	cmpb   $0x20,0xd1(%si)
     b93:	74 03                	je     0xb98
     b95:	e9 aa 01             	jmp    0xd42
     b98:	80 bc d2 00 20       	cmpb   $0x20,0xd2(%si)
     b9d:	74 03                	je     0xba2
     b9f:	e9 a0 01             	jmp    0xd42
     ba2:	80 bc d3 00 20       	cmpb   $0x20,0xd3(%si)
     ba7:	74 03                	je     0xbac
     ba9:	e9 96 01             	jmp    0xd42
     bac:	80 bc d4 00 20       	cmpb   $0x20,0xd4(%si)
     bb1:	74 03                	je     0xbb6
     bb3:	e9 8c 01             	jmp    0xd42
     bb6:	80 bc d5 00 20       	cmpb   $0x20,0xd5(%si)
     bbb:	74 03                	je     0xbc0
     bbd:	e9 82 01             	jmp    0xd42
     bc0:	80 bc d6 00 db       	cmpb   $0xdb,0xd6(%si)
     bc5:	74 03                	je     0xbca
     bc7:	e9 78 01             	jmp    0xd42
     bca:	80 bc d7 00 db       	cmpb   $0xdb,0xd7(%si)
     bcf:	74 03                	je     0xbd4
     bd1:	e9 6e 01             	jmp    0xd42
     bd4:	80 bc d8 00 db       	cmpb   $0xdb,0xd8(%si)
     bd9:	74 03                	je     0xbde
     bdb:	e9 64 01             	jmp    0xd42
     bde:	80 bc d9 00 db       	cmpb   $0xdb,0xd9(%si)
     be3:	74 03                	je     0xbe8
     be5:	e9 5a 01             	jmp    0xd42
     be8:	80 bc da 00 db       	cmpb   $0xdb,0xda(%si)
     bed:	74 03                	je     0xbf2
     bef:	e9 50 01             	jmp    0xd42
     bf2:	80 bc db 00 db       	cmpb   $0xdb,0xdb(%si)
     bf7:	74 03                	je     0xbfc
     bf9:	e9 46 01             	jmp    0xd42
     bfc:	80 bc dc 00 db       	cmpb   $0xdb,0xdc(%si)
     c01:	74 03                	je     0xc06
     c03:	e9 3c 01             	jmp    0xd42
     c06:	80 bc dd 00 ba       	cmpb   $0xba,0xdd(%si)
     c0b:	74 03                	je     0xc10
     c0d:	e9 32 01             	jmp    0xd42
     c10:	80 bc de 00 db       	cmpb   $0xdb,0xde(%si)
     c15:	74 03                	je     0xc1a
     c17:	e9 28 01             	jmp    0xd42
     c1a:	80 bc df 00 db       	cmpb   $0xdb,0xdf(%si)
     c1f:	74 03                	je     0xc24
     c21:	e9 1e 01             	jmp    0xd42
     c24:	80 bc e0 00 ba       	cmpb   $0xba,0xe0(%si)
     c29:	74 03                	je     0xc2e
     c2b:	e9 14 01             	jmp    0xd42
     c2e:	80 bc e1 00 20       	cmpb   $0x20,0xe1(%si)
     c33:	74 03                	je     0xc38
     c35:	e9 0a 01             	jmp    0xd42
     c38:	80 bc e2 00 20       	cmpb   $0x20,0xe2(%si)
     c3d:	74 03                	je     0xc42
     c3f:	e9 00 01             	jmp    0xd42
     c42:	80 bc e3 00 db       	cmpb   $0xdb,0xe3(%si)
     c47:	74 03                	je     0xc4c
     c49:	e9 f6 00             	jmp    0xd42
     c4c:	80 bc e4 00 db       	cmpb   $0xdb,0xe4(%si)
     c51:	74 03                	je     0xc56
     c53:	e9 ec 00             	jmp    0xd42
     c56:	80 bc e5 00 db       	cmpb   $0xdb,0xe5(%si)
     c5b:	74 03                	je     0xc60
     c5d:	e9 e2 00             	jmp    0xd42
     c60:	80 bc e6 00 bb       	cmpb   $0xbb,0xe6(%si)
     c65:	74 03                	je     0xc6a
     c67:	e9 d8 00             	jmp    0xd42
     c6a:	80 bc e7 00 db       	cmpb   $0xdb,0xe7(%si)
     c6f:	74 03                	je     0xc74
     c71:	e9 ce 00             	jmp    0xd42
     c74:	80 bc e8 00 db       	cmpb   $0xdb,0xe8(%si)
     c79:	74 03                	je     0xc7e
     c7b:	e9 c4 00             	jmp    0xd42
     c7e:	80 bc e9 00 ba       	cmpb   $0xba,0xe9(%si)
     c83:	74 03                	je     0xc88
     c85:	e9 ba 00             	jmp    0xd42
     c88:	80 bc ea 00 c8       	cmpb   $0xc8,0xea(%si)
     c8d:	74 03                	je     0xc92
     c8f:	e9 b0 00             	jmp    0xd42
     c92:	80 bc eb 00 db       	cmpb   $0xdb,0xeb(%si)
     c97:	74 03                	je     0xc9c
     c99:	e9 a6 00             	jmp    0xd42
     c9c:	80 bc ec 00 db       	cmpb   $0xdb,0xec(%si)
     ca1:	74 03                	je     0xca6
     ca3:	e9 9c 00             	jmp    0xd42
     ca6:	80 bc ed 00 ba       	cmpb   $0xba,0xed(%si)
     cab:	74 03                	je     0xcb0
     cad:	e9 92 00             	jmp    0xd42
     cb0:	80 bc ee 00 0d       	cmpb   $0xd,0xee(%si)
     cb5:	74 03                	je     0xcba
     cb7:	e9 88 00             	jmp    0xd42
     cba:	80 bc ef 00 0a       	cmpb   $0xa,0xef(%si)
     cbf:	74 03                	je     0xcc4
     cc1:	e9 7e 00             	jmp    0xd42
     cc4:	80 bc f0 00 db       	cmpb   $0xdb,0xf0(%si)
     cc9:	74 03                	je     0xcce
     ccb:	e9 74 00             	jmp    0xd42
     cce:	80 bc f1 00 db       	cmpb   $0xdb,0xf1(%si)
     cd3:	74 03                	je     0xcd8
     cd5:	e9 6a 00             	jmp    0xd42
     cd8:	80 bc f2 00 ba       	cmpb   $0xba,0xf2(%si)
     cdd:	74 03                	je     0xce2
     cdf:	e9 60 00             	jmp    0xd42
     ce2:	80 bc f3 00 c8       	cmpb   $0xc8,0xf3(%si)
     ce7:	75 59                	jne    0xd42
     ce9:	80 bc f4 00 db       	cmpb   $0xdb,0xf4(%si)
     cee:	75 52                	jne    0xd42
     cf0:	80 bc f5 00 db       	cmpb   $0xdb,0xf5(%si)
     cf5:	75 4b                	jne    0xd42
     cf7:	80 bc f6 00 bb       	cmpb   $0xbb,0xf6(%si)
     cfc:	75 44                	jne    0xd42
     cfe:	80 bc f7 00 db       	cmpb   $0xdb,0xf7(%si)
     d03:	75 3d                	jne    0xd42
     d05:	80 bc f8 00 db       	cmpb   $0xdb,0xf8(%si)
     d0a:	75 36                	jne    0xd42
     d0c:	80 bc f9 00 ba       	cmpb   $0xba,0xf9(%si)
     d11:	75 2f                	jne    0xd42
     d13:	80 bc fa 00 20       	cmpb   $0x20,0xfa(%si)
     d18:	75 28                	jne    0xd42
     d1a:	80 bc fb 00 db       	cmpb   $0xdb,0xfb(%si)
     d1f:	75 21                	jne    0xd42
     d21:	80 bc fc 00 db       	cmpb   $0xdb,0xfc(%si)
     d26:	75 1a                	jne    0xd42
     d28:	80 bc fd 00 ba       	cmpb   $0xba,0xfd(%si)
     d2d:	75 13                	jne    0xd42
     d2f:	80 bc fe 00 db       	cmpb   $0xdb,0xfe(%si)
     d34:	75 0c                	jne    0xd42
     d36:	80 bc ff 00 db       	cmpb   $0xdb,0xff(%si)
     d3b:	75 05                	jne    0xd42
     d3d:	b8 01 00             	mov    $0x1,%ax
     d40:	eb 02                	jmp    0xd44
     d42:	33 c0                	xor    %ax,%ax
     d44:	5e                   	pop    %si
     d45:	5d                   	pop    %bp
     d46:	c3                   	ret    
     d47:	55                   	push   %bp
     d48:	8b ec                	mov    %sp,%bp
     d4a:	56                   	push   %si
     d4b:	39 26 9e 00          	cmp    %sp,0x9e
     d4f:	72 05                	jb     0xd56
     d51:	9a 8b 33 00 00       	lcall  $0x0,$0x338b
     d56:	8b 76 04             	mov    0x4(%bp),%si
     d59:	80 bc 00 01 ba       	cmpb   $0xba,0x100(%si)
     d5e:	74 03                	je     0xd63
     d60:	e9 54 02             	jmp    0xfb7
     d63:	80 bc 01 01 20       	cmpb   $0x20,0x101(%si)
     d68:	74 03                	je     0xd6d
     d6a:	e9 4a 02             	jmp    0xfb7
     d6d:	80 bc 02 01 20       	cmpb   $0x20,0x102(%si)
     d72:	74 03                	je     0xd77
     d74:	e9 40 02             	jmp    0xfb7
     d77:	80 bc 03 01 20       	cmpb   $0x20,0x103(%si)
     d7c:	74 03                	je     0xd81
     d7e:	e9 36 02             	jmp    0xfb7
     d81:	80 bc 04 01 20       	cmpb   $0x20,0x104(%si)
     d86:	74 03                	je     0xd8b
     d88:	e9 2c 02             	jmp    0xfb7
     d8b:	80 bc 05 01 20       	cmpb   $0x20,0x105(%si)
     d90:	74 03                	je     0xd95
     d92:	e9 22 02             	jmp    0xfb7
     d95:	80 bc 06 01 20       	cmpb   $0x20,0x106(%si)
     d9a:	74 03                	je     0xd9f
     d9c:	e9 18 02             	jmp    0xfb7
     d9f:	80 bc 07 01 c8       	cmpb   $0xc8,0x107(%si)
     da4:	74 03                	je     0xda9
     da6:	e9 0e 02             	jmp    0xfb7
     da9:	80 bc 08 01 cd       	cmpb   $0xcd,0x108(%si)
     dae:	74 03                	je     0xdb3
     db0:	e9 04 02             	jmp    0xfb7
     db3:	80 bc 09 01 cd       	cmpb   $0xcd,0x109(%si)
     db8:	74 03                	je     0xdbd
     dba:	e9 fa 01             	jmp    0xfb7
     dbd:	80 bc 0a 01 cd       	cmpb   $0xcd,0x10a(%si)
     dc2:	74 03                	je     0xdc7
     dc4:	e9 f0 01             	jmp    0xfb7
     dc7:	80 bc 0b 01 db       	cmpb   $0xdb,0x10b(%si)
     dcc:	74 03                	je     0xdd1
     dce:	e9 e6 01             	jmp    0xfb7
     dd1:	80 bc 0c 01 db       	cmpb   $0xdb,0x10c(%si)
     dd6:	74 03                	je     0xddb
     dd8:	e9 dc 01             	jmp    0xfb7
     ddb:	80 bc 0d 01 bb       	cmpb   $0xbb,0x10d(%si)
     de0:	74 03                	je     0xde5
     de2:	e9 d2 01             	jmp    0xfb7
     de5:	80 bc 0e 01 20       	cmpb   $0x20,0x10e(%si)
     dea:	74 03                	je     0xdef
     dec:	e9 c8 01             	jmp    0xfb7
     def:	80 bc 0f 01 20       	cmpb   $0x20,0x10f(%si)
     df4:	74 03                	je     0xdf9
     df6:	e9 be 01             	jmp    0xfb7
     df9:	80 bc 10 01 20       	cmpb   $0x20,0x110(%si)
     dfe:	74 03                	je     0xe03
     e00:	e9 b4 01             	jmp    0xfb7
     e03:	80 bc 11 01 20       	cmpb   $0x20,0x111(%si)
     e08:	74 03                	je     0xe0d
     e0a:	e9 aa 01             	jmp    0xfb7
     e0d:	80 bc 12 01 20       	cmpb   $0x20,0x112(%si)
     e12:	74 03                	je     0xe17
     e14:	e9 a0 01             	jmp    0xfb7
     e17:	80 bc 13 01 20       	cmpb   $0x20,0x113(%si)
     e1c:	74 03                	je     0xe21
     e1e:	e9 96 01             	jmp    0xfb7
     e21:	80 bc 14 01 20       	cmpb   $0x20,0x114(%si)
     e26:	74 03                	je     0xe2b
     e28:	e9 8c 01             	jmp    0xfb7
     e2b:	80 bc 15 01 20       	cmpb   $0x20,0x115(%si)
     e30:	74 03                	je     0xe35
     e32:	e9 82 01             	jmp    0xfb7
     e35:	80 bc 16 01 db       	cmpb   $0xdb,0x116(%si)
     e3a:	74 03                	je     0xe3f
     e3c:	e9 78 01             	jmp    0xfb7
     e3f:	80 bc 17 01 db       	cmpb   $0xdb,0x117(%si)
     e44:	74 03                	je     0xe49
     e46:	e9 6e 01             	jmp    0xfb7
     e49:	80 bc 18 01 c9       	cmpb   $0xc9,0x118(%si)
     e4e:	74 03                	je     0xe53
     e50:	e9 64 01             	jmp    0xfb7
     e53:	80 bc 19 01 cd       	cmpb   $0xcd,0x119(%si)
     e58:	74 03                	je     0xe5d
     e5a:	e9 5a 01             	jmp    0xfb7
     e5d:	80 bc 1a 01 cd       	cmpb   $0xcd,0x11a(%si)
     e62:	74 03                	je     0xe67
     e64:	e9 50 01             	jmp    0xfb7
     e67:	80 bc 1b 01 bc       	cmpb   $0xbc,0x11b(%si)
     e6c:	74 03                	je     0xe71
     e6e:	e9 46 01             	jmp    0xfb7
     e71:	80 bc 1c 01 20       	cmpb   $0x20,0x11c(%si)
     e76:	74 03                	je     0xe7b
     e78:	e9 3c 01             	jmp    0xfb7
     e7b:	80 bc 1d 01 20       	cmpb   $0x20,0x11d(%si)
     e80:	74 03                	je     0xe85
     e82:	e9 32 01             	jmp    0xfb7
     e85:	80 bc 1e 01 db       	cmpb   $0xdb,0x11e(%si)
     e8a:	74 03                	je     0xe8f
     e8c:	e9 28 01             	jmp    0xfb7
     e8f:	80 bc 1f 01 db       	cmpb   $0xdb,0x11f(%si)
     e94:	74 03                	je     0xe99
     e96:	e9 1e 01             	jmp    0xfb7
     e99:	80 bc 20 01 ba       	cmpb   $0xba,0x120(%si)
     e9e:	74 03                	je     0xea3
     ea0:	e9 14 01             	jmp    0xfb7
     ea3:	80 bc 21 01 20       	cmpb   $0x20,0x121(%si)
     ea8:	74 03                	je     0xead
     eaa:	e9 0a 01             	jmp    0xfb7
     ead:	80 bc 22 01 20       	cmpb   $0x20,0x122(%si)
     eb2:	74 03                	je     0xeb7
     eb4:	e9 00 01             	jmp    0xfb7
     eb7:	80 bc 23 01 20       	cmpb   $0x20,0x123(%si)
     ebc:	74 03                	je     0xec1
     ebe:	e9 f6 00             	jmp    0xfb7
     ec1:	80 bc 24 01 20       	cmpb   $0x20,0x124(%si)
     ec6:	74 03                	je     0xecb
     ec8:	e9 ec 00             	jmp    0xfb7
     ecb:	80 bc 25 01 20       	cmpb   $0x20,0x125(%si)
     ed0:	74 03                	je     0xed5
     ed2:	e9 e2 00             	jmp    0xfb7
     ed5:	80 bc 26 01 db       	cmpb   $0xdb,0x126(%si)
     eda:	74 03                	je     0xedf
     edc:	e9 d8 00             	jmp    0xfb7
     edf:	80 bc 27 01 db       	cmpb   $0xdb,0x127(%si)
     ee4:	74 03                	je     0xee9
     ee6:	e9 ce 00             	jmp    0xfb7
     ee9:	80 bc 28 01 c9       	cmpb   $0xc9,0x128(%si)
     eee:	74 03                	je     0xef3
     ef0:	e9 c4 00             	jmp    0xfb7
     ef3:	80 bc 29 01 cd       	cmpb   $0xcd,0x129(%si)
     ef8:	74 03                	je     0xefd
     efa:	e9 ba 00             	jmp    0xfb7
     efd:	80 bc 2a 01 cd       	cmpb   $0xcd,0x12a(%si)
     f02:	74 03                	je     0xf07
     f04:	e9 b0 00             	jmp    0xfb7
     f07:	80 bc 2b 01 db       	cmpb   $0xdb,0x12b(%si)
     f0c:	74 03                	je     0xf11
     f0e:	e9 a6 00             	jmp    0xfb7
     f11:	80 bc 2c 01 db       	cmpb   $0xdb,0x12c(%si)
     f16:	74 03                	je     0xf1b
     f18:	e9 9c 00             	jmp    0xfb7
     f1b:	80 bc 2d 01 ba       	cmpb   $0xba,0x12d(%si)
     f20:	74 03                	je     0xf25
     f22:	e9 92 00             	jmp    0xfb7
     f25:	80 bc 2e 01 db       	cmpb   $0xdb,0x12e(%si)
     f2a:	74 03                	je     0xf2f
     f2c:	e9 88 00             	jmp    0xfb7
     f2f:	80 bc 2f 01 db       	cmpb   $0xdb,0x12f(%si)
     f34:	74 03                	je     0xf39
     f36:	e9 7e 00             	jmp    0xfb7
     f39:	80 bc 30 01 ba       	cmpb   $0xba,0x130(%si)
     f3e:	74 03                	je     0xf43
     f40:	e9 74 00             	jmp    0xfb7
     f43:	80 bc 31 01 20       	cmpb   $0x20,0x131(%si)
     f48:	74 03                	je     0xf4d
     f4a:	e9 6a 00             	jmp    0xfb7
     f4d:	80 bc 32 01 20       	cmpb   $0x20,0x132(%si)
     f52:	74 03                	je     0xf57
     f54:	e9 60 00             	jmp    0xfb7
     f57:	80 bc 33 01 20       	cmpb   $0x20,0x133(%si)
     f5c:	75 59                	jne    0xfb7
     f5e:	80 bc 34 01 db       	cmpb   $0xdb,0x134(%si)
     f63:	75 52                	jne    0xfb7
     f65:	80 bc 35 01 db       	cmpb   $0xdb,0x135(%si)
     f6a:	75 4b                	jne    0xfb7
     f6c:	80 bc 36 01 ba       	cmpb   $0xba,0x136(%si)
     f71:	75 44                	jne    0xfb7
     f73:	80 bc 37 01 c8       	cmpb   $0xc8,0x137(%si)
     f78:	75 3d                	jne    0xfb7
     f7a:	80 bc 38 01 cd       	cmpb   $0xcd,0x138(%si)
     f7f:	75 36                	jne    0xfb7
     f81:	80 bc 39 01 bc       	cmpb   $0xbc,0x139(%si)
     f86:	75 2f                	jne    0xfb7
     f88:	80 bc 3a 01 20       	cmpb   $0x20,0x13a(%si)
     f8d:	75 28                	jne    0xfb7
     f8f:	80 bc 3b 01 db       	cmpb   $0xdb,0x13b(%si)
     f94:	75 21                	jne    0xfb7
     f96:	80 bc 3c 01 db       	cmpb   $0xdb,0x13c(%si)
     f9b:	75 1a                	jne    0xfb7
     f9d:	80 bc 3d 01 ba       	cmpb   $0xba,0x13d(%si)
     fa2:	75 13                	jne    0xfb7
     fa4:	80 bc 3e 01 0d       	cmpb   $0xd,0x13e(%si)
     fa9:	75 0c                	jne    0xfb7
     fab:	80 bc 3f 01 0a       	cmpb   $0xa,0x13f(%si)
     fb0:	75 05                	jne    0xfb7
     fb2:	b8 01 00             	mov    $0x1,%ax
     fb5:	eb 02                	jmp    0xfb9
     fb7:	33 c0                	xor    %ax,%ax
     fb9:	5e                   	pop    %si
     fba:	5d                   	pop    %bp
     fbb:	c3                   	ret    
     fbc:	55                   	push   %bp
     fbd:	8b ec                	mov    %sp,%bp
     fbf:	56                   	push   %si
     fc0:	39 26 9e 00          	cmp    %sp,0x9e
     fc4:	72 05                	jb     0xfcb
     fc6:	9a 8b 33 00 00       	lcall  $0x0,$0x338b
     fcb:	8b 76 04             	mov    0x4(%bp),%si
     fce:	80 bc 40 01 db       	cmpb   $0xdb,0x140(%si)
     fd3:	74 03                	je     0xfd8
     fd5:	e9 54 02             	jmp    0x122c
     fd8:	80 bc 41 01 db       	cmpb   $0xdb,0x141(%si)
     fdd:	74 03                	je     0xfe2
     fdf:	e9 4a 02             	jmp    0x122c
     fe2:	80 bc 42 01 ba       	cmpb   $0xba,0x142(%si)
     fe7:	74 03                	je     0xfec
     fe9:	e9 40 02             	jmp    0x122c
     fec:	80 bc 43 01 20       	cmpb   $0x20,0x143(%si)
     ff1:	74 03                	je     0xff6
     ff3:	e9 36 02             	jmp    0x122c
     ff6:	80 bc 44 01 c8       	cmpb   $0xc8,0x144(%si)
     ffb:	74 03                	je     0x1000
     ffd:	e9 2c 02             	jmp    0x122c
    1000:	80 bc 45 01 db       	cmpb   $0xdb,0x145(%si)
    1005:	74 03                	je     0x100a
    1007:	e9 22 02             	jmp    0x122c
    100a:	80 bc 46 01 db       	cmpb   $0xdb,0x146(%si)
    100f:	74 03                	je     0x1014
    1011:	e9 18 02             	jmp    0x122c
    1014:	80 bc 47 01 db       	cmpb   $0xdb,0x147(%si)
    1019:	74 03                	je     0x101e
    101b:	e9 0e 02             	jmp    0x122c
    101e:	80 bc 48 01 db       	cmpb   $0xdb,0x148(%si)
    1023:	74 03                	je     0x1028
    1025:	e9 04 02             	jmp    0x122c
    1028:	80 bc 49 01 ba       	cmpb   $0xba,0x149(%si)
    102d:	74 03                	je     0x1032
    102f:	e9 fa 01             	jmp    0x122c
    1032:	80 bc 4a 01 20       	cmpb   $0x20,0x14a(%si)
    1037:	74 03                	je     0x103c
    1039:	e9 f0 01             	jmp    0x122c
    103c:	80 bc 4b 01 db       	cmpb   $0xdb,0x14b(%si)
    1041:	74 03                	je     0x1046
    1043:	e9 e6 01             	jmp    0x122c
    1046:	80 bc 4c 01 db       	cmpb   $0xdb,0x14c(%si)
    104b:	74 03                	je     0x1050
    104d:	e9 dc 01             	jmp    0x122c
    1050:	80 bc 4d 01 ba       	cmpb   $0xba,0x14d(%si)
    1055:	74 03                	je     0x105a
    1057:	e9 d2 01             	jmp    0x122c
    105a:	80 bc 4e 01 c8       	cmpb   $0xc8,0x14e(%si)
    105f:	74 03                	je     0x1064
    1061:	e9 c8 01             	jmp    0x122c
    1064:	80 bc 4f 01 db       	cmpb   $0xdb,0x14f(%si)
    1069:	74 03                	je     0x106e
    106b:	e9 be 01             	jmp    0x122c
    106e:	80 bc 50 01 db       	cmpb   $0xdb,0x150(%si)
    1073:	74 03                	je     0x1078
    1075:	e9 b4 01             	jmp    0x122c
    1078:	80 bc 51 01 db       	cmpb   $0xdb,0x151(%si)
    107d:	74 03                	je     0x1082
    107f:	e9 aa 01             	jmp    0x122c
    1082:	80 bc 52 01 db       	cmpb   $0xdb,0x152(%si)
    1087:	74 03                	je     0x108c
    1089:	e9 a0 01             	jmp    0x122c
    108c:	80 bc 53 01 db       	cmpb   $0xdb,0x153(%si)
    1091:	74 03                	je     0x1096
    1093:	e9 96 01             	jmp    0x122c
    1096:	80 bc 54 01 db       	cmpb   $0xdb,0x154(%si)
    109b:	74 03                	je     0x10a0
    109d:	e9 8c 01             	jmp    0x122c
    10a0:	80 bc 55 01 bb       	cmpb   $0xbb,0x155(%si)
    10a5:	74 03                	je     0x10aa
    10a7:	e9 82 01             	jmp    0x122c
    10aa:	80 bc 56 01 db       	cmpb   $0xdb,0x156(%si)
    10af:	74 03                	je     0x10b4
    10b1:	e9 78 01             	jmp    0x122c
    10b4:	80 bc 57 01 db       	cmpb   $0xdb,0x157(%si)
    10b9:	74 03                	je     0x10be
    10bb:	e9 6e 01             	jmp    0x122c
    10be:	80 bc 58 01 db       	cmpb   $0xdb,0x158(%si)
    10c3:	74 03                	je     0x10c8
    10c5:	e9 64 01             	jmp    0x122c
    10c8:	80 bc 59 01 db       	cmpb   $0xdb,0x159(%si)
    10cd:	74 03                	je     0x10d2
    10cf:	e9 5a 01             	jmp    0x122c
    10d2:	80 bc 5a 01 db       	cmpb   $0xdb,0x15a(%si)
    10d7:	74 03                	je     0x10dc
    10d9:	e9 50 01             	jmp    0x122c
    10dc:	80 bc 5b 01 db       	cmpb   $0xdb,0x15b(%si)
    10e1:	74 03                	je     0x10e6
    10e3:	e9 46 01             	jmp    0x122c
    10e6:	80 bc 5c 01 c9       	cmpb   $0xc9,0x15c(%si)
    10eb:	74 03                	je     0x10f0
    10ed:	e9 3c 01             	jmp    0x122c
    10f0:	80 bc 5d 01 bc       	cmpb   $0xbc,0x15d(%si)
    10f5:	74 03                	je     0x10fa
    10f7:	e9 32 01             	jmp    0x122c
    10fa:	80 bc 5e 01 db       	cmpb   $0xdb,0x15e(%si)
    10ff:	74 03                	je     0x1104
    1101:	e9 28 01             	jmp    0x122c
    1104:	80 bc 5f 01 db       	cmpb   $0xdb,0x15f(%si)
    1109:	74 03                	je     0x110e
    110b:	e9 1e 01             	jmp    0x122c
    110e:	80 bc 60 01 db       	cmpb   $0xdb,0x160(%si)
    1113:	74 03                	je     0x1118
    1115:	e9 14 01             	jmp    0x122c
    1118:	80 bc 61 01 db       	cmpb   $0xdb,0x161(%si)
    111d:	74 03                	je     0x1122
    111f:	e9 0a 01             	jmp    0x122c
    1122:	80 bc 62 01 db       	cmpb   $0xdb,0x162(%si)
    1127:	74 03                	je     0x112c
    1129:	e9 00 01             	jmp    0x122c
    112c:	80 bc 63 01 db       	cmpb   $0xdb,0x163(%si)
    1131:	74 03                	je     0x1136
    1133:	e9 f6 00             	jmp    0x122c
    1136:	80 bc 64 01 db       	cmpb   $0xdb,0x164(%si)
    113b:	74 03                	je     0x1140
    113d:	e9 ec 00             	jmp    0x122c
    1140:	80 bc 65 01 bb       	cmpb   $0xbb,0x165(%si)
    1145:	74 03                	je     0x114a
    1147:	e9 e2 00             	jmp    0x122c
    114a:	80 bc 66 01 db       	cmpb   $0xdb,0x166(%si)
    114f:	74 03                	je     0x1154
    1151:	e9 d8 00             	jmp    0x122c
    1154:	80 bc 67 01 db       	cmpb   $0xdb,0x167(%si)
    1159:	74 03                	je     0x115e
    115b:	e9 ce 00             	jmp    0x122c
    115e:	80 bc 68 01 ba       	cmpb   $0xba,0x168(%si)
    1163:	74 03                	je     0x1168
    1165:	e9 c4 00             	jmp    0x122c
    1168:	80 bc 69 01 20       	cmpb   $0x20,0x169(%si)
    116d:	74 03                	je     0x1172
    116f:	e9 ba 00             	jmp    0x122c
    1172:	80 bc 6a 01 20       	cmpb   $0x20,0x16a(%si)
    1177:	74 03                	je     0x117c
    1179:	e9 b0 00             	jmp    0x122c
    117c:	80 bc 6b 01 20       	cmpb   $0x20,0x16b(%si)
    1181:	74 03                	je     0x1186
    1183:	e9 a6 00             	jmp    0x122c
    1186:	80 bc 6c 01 20       	cmpb   $0x20,0x16c(%si)
    118b:	74 03                	je     0x1190
    118d:	e9 9c 00             	jmp    0x122c
    1190:	80 bc 6d 01 20       	cmpb   $0x20,0x16d(%si)
    1195:	74 03                	je     0x119a
    1197:	e9 92 00             	jmp    0x122c
    119a:	80 bc 6e 01 db       	cmpb   $0xdb,0x16e(%si)
    119f:	74 03                	je     0x11a4
    11a1:	e9 88 00             	jmp    0x122c
    11a4:	80 bc 6f 01 db       	cmpb   $0xdb,0x16f(%si)
    11a9:	74 03                	je     0x11ae
    11ab:	e9 7e 00             	jmp    0x122c
    11ae:	80 bc 70 01 db       	cmpb   $0xdb,0x170(%si)
    11b3:	74 03                	je     0x11b8
    11b5:	e9 74 00             	jmp    0x122c
    11b8:	80 bc 71 01 db       	cmpb   $0xdb,0x171(%si)
    11bd:	74 03                	je     0x11c2
    11bf:	e9 6a 00             	jmp    0x122c
    11c2:	80 bc 72 01 db       	cmpb   $0xdb,0x172(%si)
    11c7:	74 03                	je     0x11cc
    11c9:	e9 60 00             	jmp    0x122c
    11cc:	80 bc 73 01 db       	cmpb   $0xdb,0x173(%si)
    11d1:	75 59                	jne    0x122c
    11d3:	80 bc 74 01 db       	cmpb   $0xdb,0x174(%si)
    11d8:	75 52                	jne    0x122c
    11da:	80 bc 75 01 bb       	cmpb   $0xbb,0x175(%si)
    11df:	75 4b                	jne    0x122c
    11e1:	80 bc 76 01 db       	cmpb   $0xdb,0x176(%si)
    11e6:	75 44                	jne    0x122c
    11e8:	80 bc 77 01 db       	cmpb   $0xdb,0x177(%si)
    11ed:	75 3d                	jne    0x122c
    11ef:	80 bc 78 01 ba       	cmpb   $0xba,0x178(%si)
    11f4:	75 36                	jne    0x122c
    11f6:	80 bc 79 01 20       	cmpb   $0x20,0x179(%si)
    11fb:	75 2f                	jne    0x122c
    11fd:	80 bc 7a 01 20       	cmpb   $0x20,0x17a(%si)
    1202:	75 28                	jne    0x122c
    1204:	80 bc 7b 01 db       	cmpb   $0xdb,0x17b(%si)
    1209:	75 21                	jne    0x122c
    120b:	80 bc 7c 01 db       	cmpb   $0xdb,0x17c(%si)
    1210:	75 1a                	jne    0x122c
    1212:	80 bc 7d 01 ba       	cmpb   $0xba,0x17d(%si)
    1217:	75 13                	jne    0x122c
    1219:	80 bc 7e 01 c8       	cmpb   $0xc8,0x17e(%si)
    121e:	75 0c                	jne    0x122c
    1220:	80 bc 7f 01 db       	cmpb   $0xdb,0x17f(%si)
    1225:	75 05                	jne    0x122c
    1227:	b8 01 00             	mov    $0x1,%ax
    122a:	eb 02                	jmp    0x122e
    122c:	33 c0                	xor    %ax,%ax
    122e:	5e                   	pop    %si
    122f:	5d                   	pop    %bp
    1230:	c3                   	ret    
    1231:	55                   	push   %bp
    1232:	8b ec                	mov    %sp,%bp
    1234:	56                   	push   %si
    1235:	39 26 9e 00          	cmp    %sp,0x9e
    1239:	72 05                	jb     0x1240
    123b:	9a 8b 33 00 00       	lcall  $0x0,$0x338b
    1240:	8b 76 04             	mov    0x4(%bp),%si
    1243:	80 bc 80 01 db       	cmpb   $0xdb,0x180(%si)
    1248:	74 03                	je     0x124d
    124a:	e9 54 02             	jmp    0x14a1
    124d:	80 bc 81 01 db       	cmpb   $0xdb,0x181(%si)
    1252:	74 03                	je     0x1257
    1254:	e9 4a 02             	jmp    0x14a1
    1257:	80 bc 82 01 db       	cmpb   $0xdb,0x182(%si)
    125c:	74 03                	je     0x1261
    125e:	e9 40 02             	jmp    0x14a1
    1261:	80 bc 83 01 db       	cmpb   $0xdb,0x183(%si)
    1266:	74 03                	je     0x126b
    1268:	e9 36 02             	jmp    0x14a1
    126b:	80 bc 84 01 db       	cmpb   $0xdb,0x184(%si)
    1270:	74 03                	je     0x1275
    1272:	e9 2c 02             	jmp    0x14a1
    1275:	80 bc 85 01 c9       	cmpb   $0xc9,0x185(%si)
    127a:	74 03                	je     0x127f
    127c:	e9 22 02             	jmp    0x14a1
    127f:	80 bc 86 01 bc       	cmpb   $0xbc,0x186(%si)
    1284:	74 03                	je     0x1289
    1286:	e9 18 02             	jmp    0x14a1
    1289:	80 bc 87 01 db       	cmpb   $0xdb,0x187(%si)
    128e:	74 03                	je     0x1293
    1290:	e9 0e 02             	jmp    0x14a1
    1293:	80 bc 88 01 db       	cmpb   $0xdb,0x188(%si)
    1298:	74 03                	je     0x129d
    129a:	e9 04 02             	jmp    0x14a1
    129d:	80 bc 89 01 bb       	cmpb   $0xbb,0x189(%si)
    12a2:	74 03                	je     0x12a7
    12a4:	e9 fa 01             	jmp    0x14a1
    12a7:	80 bc 8a 01 20       	cmpb   $0x20,0x18a(%si)
    12ac:	74 03                	je     0x12b1
    12ae:	e9 f0 01             	jmp    0x14a1
    12b1:	80 bc 8b 01 db       	cmpb   $0xdb,0x18b(%si)
    12b6:	74 03                	je     0x12bb
    12b8:	e9 e6 01             	jmp    0x14a1
    12bb:	80 bc 8c 01 db       	cmpb   $0xdb,0x18c(%si)
    12c0:	74 03                	je     0x12c5
    12c2:	e9 dc 01             	jmp    0x14a1
    12c5:	80 bc 8d 01 ba       	cmpb   $0xba,0x18d(%si)
    12ca:	74 03                	je     0x12cf
    12cc:	e9 d2 01             	jmp    0x14a1
    12cf:	80 bc 8e 01 0d       	cmpb   $0xd,0x18e(%si)
    12d4:	74 03                	je     0x12d9
    12d6:	e9 c8 01             	jmp    0x14a1
    12d9:	80 bc 8f 01 0a       	cmpb   $0xa,0x18f(%si)
    12de:	74 03                	je     0x12e3
    12e0:	e9 be 01             	jmp    0x14a1
    12e3:	80 bc 90 01 c8       	cmpb   $0xc8,0x190(%si)
    12e8:	74 03                	je     0x12ed
    12ea:	e9 b4 01             	jmp    0x14a1
    12ed:	80 bc 91 01 cd       	cmpb   $0xcd,0x191(%si)
    12f2:	74 03                	je     0x12f7
    12f4:	e9 aa 01             	jmp    0x14a1
    12f7:	80 bc 92 01 bc       	cmpb   $0xbc,0x192(%si)
    12fc:	74 03                	je     0x1301
    12fe:	e9 a0 01             	jmp    0x14a1
    1301:	80 bc 93 01 20       	cmpb   $0x20,0x193(%si)
    1306:	74 03                	je     0x130b
    1308:	e9 96 01             	jmp    0x14a1
    130b:	80 bc 94 01 20       	cmpb   $0x20,0x194(%si)
    1310:	74 03                	je     0x1315
    1312:	e9 8c 01             	jmp    0x14a1
    1315:	80 bc 95 01 c8       	cmpb   $0xc8,0x195(%si)
    131a:	74 03                	je     0x131f
    131c:	e9 82 01             	jmp    0x14a1
    131f:	80 bc 96 01 cd       	cmpb   $0xcd,0x196(%si)
    1324:	74 03                	je     0x1329
    1326:	e9 78 01             	jmp    0x14a1
    1329:	80 bc 97 01 cd       	cmpb   $0xcd,0x197(%si)
    132e:	74 03                	je     0x1333
    1330:	e9 6e 01             	jmp    0x14a1
    1333:	80 bc 98 01 cd       	cmpb   $0xcd,0x198(%si)
    1338:	74 03                	je     0x133d
    133a:	e9 64 01             	jmp    0x14a1
    133d:	80 bc 99 01 bc       	cmpb   $0xbc,0x199(%si)
    1342:	74 03                	je     0x1347
    1344:	e9 5a 01             	jmp    0x14a1
    1347:	80 bc 9a 01 20       	cmpb   $0x20,0x19a(%si)
    134c:	74 03                	je     0x1351
    134e:	e9 50 01             	jmp    0x14a1
    1351:	80 bc 9b 01 c8       	cmpb   $0xc8,0x19b(%si)
    1356:	74 03                	je     0x135b
    1358:	e9 46 01             	jmp    0x14a1
    135b:	80 bc 9c 01 cd       	cmpb   $0xcd,0x19c(%si)
    1360:	74 03                	je     0x1365
    1362:	e9 3c 01             	jmp    0x14a1
    1365:	80 bc 9d 01 bc       	cmpb   $0xbc,0x19d(%si)
    136a:	74 03                	je     0x136f
    136c:	e9 32 01             	jmp    0x14a1
    136f:	80 bc 9e 01 20       	cmpb   $0x20,0x19e(%si)
    1374:	74 03                	je     0x1379
    1376:	e9 28 01             	jmp    0x14a1
    1379:	80 bc 9f 01 c8       	cmpb   $0xc8,0x19f(%si)
    137e:	74 03                	je     0x1383
    1380:	e9 1e 01             	jmp    0x14a1
    1383:	80 bc a0 01 cd       	cmpb   $0xcd,0x1a0(%si)
    1388:	74 03                	je     0x138d
    138a:	e9 14 01             	jmp    0x14a1
    138d:	80 bc a1 01 cd       	cmpb   $0xcd,0x1a1(%si)
    1392:	74 03                	je     0x1397
    1394:	e9 0a 01             	jmp    0x14a1
    1397:	80 bc a2 01 cd       	cmpb   $0xcd,0x1a2(%si)
    139c:	74 03                	je     0x13a1
    139e:	e9 00 01             	jmp    0x14a1
    13a1:	80 bc a3 01 cd       	cmpb   $0xcd,0x1a3(%si)
    13a6:	74 03                	je     0x13ab
    13a8:	e9 f6 00             	jmp    0x14a1
    13ab:	80 bc a4 01 cd       	cmpb   $0xcd,0x1a4(%si)
    13b0:	74 03                	je     0x13b5
    13b2:	e9 ec 00             	jmp    0x14a1
    13b5:	80 bc a5 01 bc       	cmpb   $0xbc,0x1a5(%si)
    13ba:	74 03                	je     0x13bf
    13bc:	e9 e2 00             	jmp    0x14a1
    13bf:	80 bc a6 01 c8       	cmpb   $0xc8,0x1a6(%si)
    13c4:	74 03                	je     0x13c9
    13c6:	e9 d8 00             	jmp    0x14a1
    13c9:	80 bc a7 01 cd       	cmpb   $0xcd,0x1a7(%si)
    13ce:	74 03                	je     0x13d3
    13d0:	e9 ce 00             	jmp    0x14a1
    13d3:	80 bc a8 01 cd       	cmpb   $0xcd,0x1a8(%si)
    13d8:	74 03                	je     0x13dd
    13da:	e9 c4 00             	jmp    0x14a1
    13dd:	80 bc a9 01 cd       	cmpb   $0xcd,0x1a9(%si)
    13e2:	74 03                	je     0x13e7
    13e4:	e9 ba 00             	jmp    0x14a1
    13e7:	80 bc aa 01 cd       	cmpb   $0xcd,0x1aa(%si)
    13ec:	74 03                	je     0x13f1
    13ee:	e9 b0 00             	jmp    0x14a1
    13f1:	80 bc ab 01 cd       	cmpb   $0xcd,0x1ab(%si)
    13f6:	74 03                	je     0x13fb
    13f8:	e9 a6 00             	jmp    0x14a1
    13fb:	80 bc ac 01 bc       	cmpb   $0xbc,0x1ac(%si)
    1400:	74 03                	je     0x1405
    1402:	e9 9c 00             	jmp    0x14a1
    1405:	80 bc ad 01 20       	cmpb   $0x20,0x1ad(%si)
    140a:	74 03                	je     0x140f
    140c:	e9 92 00             	jmp    0x14a1
    140f:	80 bc ae 01 c8       	cmpb   $0xc8,0x1ae(%si)
    1414:	74 03                	je     0x1419
    1416:	e9 88 00             	jmp    0x14a1
    1419:	80 bc af 01 cd       	cmpb   $0xcd,0x1af(%si)
    141e:	74 03                	je     0x1423
    1420:	e9 7e 00             	jmp    0x14a1
    1423:	80 bc b0 01 cd       	cmpb   $0xcd,0x1b0(%si)
    1428:	74 03                	je     0x142d
    142a:	e9 74 00             	jmp    0x14a1
    142d:	80 bc b1 01 cd       	cmpb   $0xcd,0x1b1(%si)
    1432:	74 03                	je     0x1437
    1434:	e9 6a 00             	jmp    0x14a1
    1437:	80 bc b2 01 cd       	cmpb   $0xcd,0x1b2(%si)
    143c:	74 03                	je     0x1441
    143e:	e9 60 00             	jmp    0x14a1
    1441:	80 bc b3 01 cd       	cmpb   $0xcd,0x1b3(%si)
    1446:	75 59                	jne    0x14a1
    1448:	80 bc b4 01 cd       	cmpb   $0xcd,0x1b4(%si)
    144d:	75 52                	jne    0x14a1
    144f:	80 bc b5 01 bc       	cmpb   $0xbc,0x1b5(%si)
    1454:	75 4b                	jne    0x14a1
    1456:	80 bc b6 01 c8       	cmpb   $0xc8,0x1b6(%si)
    145b:	75 44                	jne    0x14a1
    145d:	80 bc b7 01 cd       	cmpb   $0xcd,0x1b7(%si)
    1462:	75 3d                	jne    0x14a1
    1464:	80 bc b8 01 bc       	cmpb   $0xbc,0x1b8(%si)
    1469:	75 36                	jne    0x14a1
    146b:	80 bc b9 01 20       	cmpb   $0x20,0x1b9(%si)
    1470:	75 2f                	jne    0x14a1
    1472:	80 bc ba 01 20       	cmpb   $0x20,0x1ba(%si)
    1477:	75 28                	jne    0x14a1
    1479:	80 bc bb 01 20       	cmpb   $0x20,0x1bb(%si)
    147e:	75 21                	jne    0x14a1
    1480:	80 bc bc 01 20       	cmpb   $0x20,0x1bc(%si)
    1485:	75 1a                	jne    0x14a1
    1487:	80 bc bd 01 20       	cmpb   $0x20,0x1bd(%si)
    148c:	75 13                	jne    0x14a1
    148e:	80 bc be 01 c8       	cmpb   $0xc8,0x1be(%si)
    1493:	75 0c                	jne    0x14a1
    1495:	80 bc bf 01 cd       	cmpb   $0xcd,0x1bf(%si)
    149a:	75 05                	jne    0x14a1
    149c:	b8 01 00             	mov    $0x1,%ax
    149f:	eb 02                	jmp    0x14a3
    14a1:	33 c0                	xor    %ax,%ax
    14a3:	5e                   	pop    %si
    14a4:	5d                   	pop    %bp
    14a5:	c3                   	ret    
    14a6:	55                   	push   %bp
    14a7:	8b ec                	mov    %sp,%bp
    14a9:	56                   	push   %si
    14aa:	39 26 9e 00          	cmp    %sp,0x9e
    14ae:	72 05                	jb     0x14b5
    14b0:	9a 8b 33 00 00       	lcall  $0x0,$0x338b
    14b5:	8b 76 04             	mov    0x4(%bp),%si
    14b8:	80 bc c1 01 cd       	cmpb   $0xcd,0x1c1(%si)
    14bd:	74 03                	je     0x14c2
    14bf:	e9 14 01             	jmp    0x15d6
    14c2:	80 bc c2 01 cd       	cmpb   $0xcd,0x1c2(%si)
    14c7:	74 03                	je     0x14cc
    14c9:	e9 0a 01             	jmp    0x15d6
    14cc:	80 bc c3 01 cd       	cmpb   $0xcd,0x1c3(%si)
    14d1:	74 03                	je     0x14d6
    14d3:	e9 00 01             	jmp    0x15d6
    14d6:	80 bc c4 01 cd       	cmpb   $0xcd,0x1c4(%si)
    14db:	74 03                	je     0x14e0
    14dd:	e9 f6 00             	jmp    0x15d6
    14e0:	80 bc c5 01 bc       	cmpb   $0xbc,0x1c5(%si)
    14e5:	74 03                	je     0x14ea
    14e7:	e9 ec 00             	jmp    0x15d6
    14ea:	80 bc c6 01 c8       	cmpb   $0xc8,0x1c6(%si)
    14ef:	74 03                	je     0x14f4
    14f1:	e9 e2 00             	jmp    0x15d6
    14f4:	80 bc c7 01 cd       	cmpb   $0xcd,0x1c7(%si)
    14f9:	74 03                	je     0x14fe
    14fb:	e9 d8 00             	jmp    0x15d6
    14fe:	80 bc c8 01 bc       	cmpb   $0xbc,0x1c8(%si)
    1503:	74 03                	je     0x1508
    1505:	e9 ce 00             	jmp    0x15d6
    1508:	80 bc c9 01 20       	cmpb   $0x20,0x1c9(%si)
    150d:	74 03                	je     0x1512
    150f:	e9 c4 00             	jmp    0x15d6
    1512:	80 bc ca 01 20       	cmpb   $0x20,0x1ca(%si)
    1517:	74 03                	je     0x151c
    1519:	e9 ba 00             	jmp    0x15d6
    151c:	80 bc cb 01 c8       	cmpb   $0xc8,0x1cb(%si)
    1521:	74 03                	je     0x1526
    1523:	e9 b0 00             	jmp    0x15d6
    1526:	80 bc cc 01 cd       	cmpb   $0xcd,0x1cc(%si)
    152b:	74 03                	je     0x1530
    152d:	e9 a6 00             	jmp    0x15d6
    1530:	80 bc cd 01 bc       	cmpb   $0xbc,0x1cd(%si)
    1535:	74 03                	je     0x153a
    1537:	e9 9c 00             	jmp    0x15d6
    153a:	80 bc ce 01 20       	cmpb   $0x20,0x1ce(%si)
    153f:	74 03                	je     0x1544
    1541:	e9 92 00             	jmp    0x15d6
    1544:	80 bc cf 01 c8       	cmpb   $0xc8,0x1cf(%si)
    1549:	74 03                	je     0x154e
    154b:	e9 88 00             	jmp    0x15d6
    154e:	80 bc d0 01 cd       	cmpb   $0xcd,0x1d0(%si)
    1553:	74 03                	je     0x1558
    1555:	e9 7e 00             	jmp    0x15d6
    1558:	80 bc d1 01 cd       	cmpb   $0xcd,0x1d1(%si)
    155d:	74 03                	je     0x1562
    155f:	e9 74 00             	jmp    0x15d6
    1562:	80 bc d2 01 cd       	cmpb   $0xcd,0x1d2(%si)
    1567:	74 03                	je     0x156c
    1569:	e9 6a 00             	jmp    0x15d6
    156c:	80 bc d3 01 cd       	cmpb   $0xcd,0x1d3(%si)
    1571:	74 03                	je     0x1576
    1573:	e9 60 00             	jmp    0x15d6
    1576:	80 bc d4 01 cd       	cmpb   $0xcd,0x1d4(%si)
    157b:	75 59                	jne    0x15d6
    157d:	80 bc d5 01 bc       	cmpb   $0xbc,0x1d5(%si)
    1582:	75 52                	jne    0x15d6
    1584:	80 bc d6 01 20       	cmpb   $0x20,0x1d6(%si)
    1589:	75 4b                	jne    0x15d6
    158b:	80 bc d7 01 c8       	cmpb   $0xc8,0x1d7(%si)
    1590:	75 44                	jne    0x15d6
    1592:	80 bc d8 01 cd       	cmpb   $0xcd,0x1d8(%si)
    1597:	75 3d                	jne    0x15d6
    1599:	80 bc d9 01 bc       	cmpb   $0xbc,0x1d9(%si)
    159e:	75 36                	jne    0x15d6
    15a0:	80 bc da 01 20       	cmpb   $0x20,0x1da(%si)
    15a5:	75 2f                	jne    0x15d6
    15a7:	80 bc db 01 c8       	cmpb   $0xc8,0x1db(%si)
    15ac:	75 28                	jne    0x15d6
    15ae:	80 bc dc 01 cd       	cmpb   $0xcd,0x1dc(%si)
    15b3:	75 21                	jne    0x15d6
    15b5:	80 bc dd 01 bc       	cmpb   $0xbc,0x1dd(%si)
    15ba:	75 1a                	jne    0x15d6
    15bc:	80 bc de 01 0d       	cmpb   $0xd,0x1de(%si)
    15c1:	75 13                	jne    0x15d6
    15c3:	80 bc df 01 0a       	cmpb   $0xa,0x1df(%si)
    15c8:	75 0c                	jne    0x15d6
    15ca:	80 bc c0 01 cd       	cmpb   $0xcd,0x1c0(%si)
    15cf:	75 05                	jne    0x15d6
    15d1:	b8 01 00             	mov    $0x1,%ax
    15d4:	eb 02                	jmp    0x15d8
    15d6:	33 c0                	xor    %ax,%ax
    15d8:	5e                   	pop    %si
    15d9:	5d                   	pop    %bp
    15da:	c3                   	ret    
    15db:	55                   	push   %bp
    15dc:	8b ec                	mov    %sp,%bp
    15de:	81 ec ea 01          	sub    $0x1ea,%sp
    15e2:	56                   	push   %si
    15e3:	57                   	push   %di
    15e4:	3b ec                	cmp    %sp,%bp
    15e6:	72 06                	jb     0x15ee
    15e8:	39 26 9e 00          	cmp    %sp,0x9e
    15ec:	72 05                	jb     0x15f3
    15ee:	9a 8b 33 00 00       	lcall  $0x0,$0x338b
    15f3:	c7 86 16 fe 00 00    	movw   $0x0,-0x1ea(%bp)
    15f9:	16                   	push   %ss
    15fa:	8d 86 18 fe          	lea    -0x1e8(%bp),%ax
    15fe:	50                   	push   %ax
    15ff:	1e                   	push   %ds
    1600:	b8 94 01             	mov    $0x194,%ax
    1603:	50                   	push   %ax
    1604:	b9 e0 01             	mov    $0x1e0,%cx
    1607:	9a 99 33 00 00       	lcall  $0x0,$0x3399
    160c:	c7 46 f8 00 00       	movw   $0x0,-0x8(%bp)
    1611:	c7 46 fa 00 00       	movw   $0x0,-0x6(%bp)
    1616:	c7 46 fc 00 00       	movw   $0x0,-0x4(%bp)
    161b:	c6 46 ff 00          	movb   $0x0,-0x1(%bp)
    161f:	b8 74 03             	mov    $0x374,%ax
    1622:	50                   	push   %ax
    1623:	e8 17 15             	call   0x2b3d
    1626:	59                   	pop    %cx
    1627:	b8 9c 03             	mov    $0x39c,%ax
    162a:	50                   	push   %ax
    162b:	e8 16 13             	call   0x2944
    162e:	59                   	pop    %cx
    162f:	b8 88 13             	mov    $0x1388,%ax
    1632:	50                   	push   %ax
    1633:	e8 66 1d             	call   0x339c
    1636:	59                   	pop    %cx
    1637:	b8 02 00             	mov    $0x2,%ax
    163a:	50                   	push   %ax
    163b:	e8 0f 1d             	call   0x334d
    163e:	59                   	pop    %cx
    163f:	e8 e2 1c             	call   0x3324
    1642:	83 7e 04 02          	cmpw   $0x2,0x4(%bp)
    1646:	7d 0a                	jge    0x1652
    1648:	b8 a1 03             	mov    $0x3a1,%ax
    164b:	50                   	push   %ax
    164c:	e8 f5 12             	call   0x2944
    164f:	59                   	pop    %cx
    1650:	eb 25                	jmp    0x1677
    1652:	b8 be 03             	mov    $0x3be,%ax
    1655:	50                   	push   %ax
    1656:	8b 5e 06             	mov    0x6(%bp),%bx
    1659:	ff 77 02             	pushw  0x2(%bx)
    165c:	e8 5e 06             	call   0x1cbd
    165f:	59                   	pop    %cx
    1660:	59                   	pop    %cx
    1661:	89 46 fc             	mov    %ax,-0x4(%bp)
    1664:	0b c0                	or     %ax,%ax
    1666:	75 15                	jne    0x167d
    1668:	8b 5e 06             	mov    0x6(%bp),%bx
    166b:	ff 77 02             	pushw  0x2(%bx)
    166e:	b8 c1 03             	mov    $0x3c1,%ax
    1671:	50                   	push   %ax
    1672:	e8 cf 12             	call   0x2944
    1675:	59                   	pop    %cx
    1676:	59                   	pop    %cx
    1677:	b8 01 00             	mov    $0x1,%ax
    167a:	e9 fb 00             	jmp    0x1778
    167d:	33 f6                	xor    %si,%si
    167f:	eb 37                	jmp    0x16b8
    1681:	33 ff                	xor    %di,%di
    1683:	eb 2d                	jmp    0x16b2
    1685:	ff 76 fc             	pushw  -0x4(%bp)
    1688:	e8 02 0a             	call   0x208d
    168b:	59                   	pop    %cx
    168c:	88 46 ff             	mov    %al,-0x1(%bp)
    168f:	8a 46 ff             	mov    -0x1(%bp),%al
    1692:	b4 00                	mov    $0x0,%ah
    1694:	3d ff ff             	cmp    $0xffff,%ax
    1697:	74 18                	je     0x16b1
    1699:	8a 46 ff             	mov    -0x1(%bp),%al
    169c:	50                   	push   %ax
    169d:	8b c6                	mov    %si,%ax
    169f:	ba 50 00             	mov    $0x50,%dx
    16a2:	f7 e2                	mul    %dx
    16a4:	8b d8                	mov    %ax,%bx
    16a6:	03 df                	add    %di,%bx
    16a8:	8d 86 18 fe          	lea    -0x1e8(%bp),%ax
    16ac:	03 d8                	add    %ax,%bx
    16ae:	58                   	pop    %ax
    16af:	88 07                	mov    %al,(%bx)
    16b1:	47                   	inc    %di
    16b2:	83 ff 50             	cmp    $0x50,%di
    16b5:	7c ce                	jl     0x1685
    16b7:	46                   	inc    %si
    16b8:	83 fe 06             	cmp    $0x6,%si
    16bb:	7c c4                	jl     0x1681
    16bd:	8d 86 18 fe          	lea    -0x1e8(%bp),%ax
    16c1:	50                   	push   %ax
    16c2:	e8 35 ed             	call   0x3fa
    16c5:	59                   	pop    %cx
    16c6:	0b c0                	or     %ax,%ax
    16c8:	75 03                	jne    0x16cd
    16ca:	e9 a1 00             	jmp    0x176e
    16cd:	8d 86 18 fe          	lea    -0x1e8(%bp),%ax
    16d1:	50                   	push   %ax
    16d2:	e8 56 ef             	call   0x62b
    16d5:	59                   	pop    %cx
    16d6:	0b c0                	or     %ax,%ax
    16d8:	75 03                	jne    0x16dd
    16da:	e9 91 00             	jmp    0x176e
    16dd:	8d 86 18 fe          	lea    -0x1e8(%bp),%ax
    16e1:	50                   	push   %ax
    16e2:	e8 78 f1             	call   0x85d
    16e5:	59                   	pop    %cx
    16e6:	0b c0                	or     %ax,%ax
    16e8:	75 03                	jne    0x16ed
    16ea:	e9 81 00             	jmp    0x176e
    16ed:	8d 86 18 fe          	lea    -0x1e8(%bp),%ax
    16f1:	50                   	push   %ax
    16f2:	e8 dd f3             	call   0xad2
    16f5:	59                   	pop    %cx
    16f6:	0b c0                	or     %ax,%ax
    16f8:	75 03                	jne    0x16fd
    16fa:	e9 71 00             	jmp    0x176e
    16fd:	8d 86 18 fe          	lea    -0x1e8(%bp),%ax
    1701:	50                   	push   %ax
    1702:	e8 42 f6             	call   0xd47
    1705:	59                   	pop    %cx
    1706:	0b c0                	or     %ax,%ax
    1708:	74 64                	je     0x176e
    170a:	8d 86 18 fe          	lea    -0x1e8(%bp),%ax
    170e:	50                   	push   %ax
    170f:	e8 aa f8             	call   0xfbc
    1712:	59                   	pop    %cx
    1713:	0b c0                	or     %ax,%ax
    1715:	74 57                	je     0x176e
    1717:	8d 86 18 fe          	lea    -0x1e8(%bp),%ax
    171b:	50                   	push   %ax
    171c:	e8 12 fb             	call   0x1231
    171f:	59                   	pop    %cx
    1720:	0b c0                	or     %ax,%ax
    1722:	74 4a                	je     0x176e
    1724:	8d 86 18 fe          	lea    -0x1e8(%bp),%ax
    1728:	50                   	push   %ax
    1729:	e8 7a fd             	call   0x14a6
    172c:	59                   	pop    %cx
    172d:	0b c0                	or     %ax,%ax
    172f:	74 3d                	je     0x176e
    1731:	b8 e0 03             	mov    $0x3e0,%ax
    1734:	50                   	push   %ax
    1735:	e8 0c 12             	call   0x2944
    1738:	59                   	pop    %cx
    1739:	33 f6                	xor    %si,%si
    173b:	eb 2a                	jmp    0x1767
    173d:	33 ff                	xor    %di,%di
    173f:	eb 20                	jmp    0x1761
    1741:	8b c6                	mov    %si,%ax
    1743:	ba 50 00             	mov    $0x50,%dx
    1746:	f7 e2                	mul    %dx
    1748:	8b d8                	mov    %ax,%bx
    174a:	03 df                	add    %di,%bx
    174c:	8d 86 18 fe          	lea    -0x1e8(%bp),%ax
    1750:	03 d8                	add    %ax,%bx
    1752:	8a 07                	mov    (%bx),%al
    1754:	b4 00                	mov    $0x0,%ah
    1756:	50                   	push   %ax
    1757:	b8 00 04             	mov    $0x400,%ax
    175a:	50                   	push   %ax
    175b:	e8 e6 11             	call   0x2944
    175e:	59                   	pop    %cx
    175f:	59                   	pop    %cx
    1760:	47                   	inc    %di
    1761:	83 ff 50             	cmp    $0x50,%di
    1764:	7c db                	jl     0x1741
    1766:	46                   	inc    %si
    1767:	83 fe 06             	cmp    $0x6,%si
    176a:	7c d1                	jl     0x173d
    176c:	eb 08                	jmp    0x1776
    176e:	b8 03 04             	mov    $0x403,%ax
    1771:	50                   	push   %ax
    1772:	e8 cf 11             	call   0x2944
    1775:	59                   	pop    %cx
    1776:	33 c0                	xor    %ax,%ax
    1778:	5f                   	pop    %di
    1779:	5e                   	pop    %si
    177a:	8b e5                	mov    %bp,%sp
    177c:	5d                   	pop    %bp
    177d:	c3                   	ret    
    177e:	55                   	push   %bp
    177f:	8b ec                	mov    %sp,%bp
    1781:	56                   	push   %si
    1782:	8b 76 04             	mov    0x4(%bp),%si
    1785:	0b f6                	or     %si,%si
    1787:	7c 14                	jl     0x179d
    1789:	83 fe 58             	cmp    $0x58,%si
    178c:	76 03                	jbe    0x1791
    178e:	be 57 00             	mov    $0x57,%si
    1791:	89 36 24 04          	mov    %si,0x424
    1795:	8a 84 26 04          	mov    0x426(%si),%al
    1799:	98                   	cbtw   
    179a:	96                   	xchg   %ax,%si
    179b:	eb 0d                	jmp    0x17aa
    179d:	f7 de                	neg    %si
    179f:	83 fe 23             	cmp    $0x23,%si
    17a2:	77 ea                	ja     0x178e
    17a4:	c7 06 24 04 ff ff    	movw   $0xffff,0x424
    17aa:	8b c6                	mov    %si,%ax
    17ac:	a3 94 00             	mov    %ax,0x94
    17af:	b8 ff ff             	mov    $0xffff,%ax
    17b2:	eb 00                	jmp    0x17b4
    17b4:	5e                   	pop    %si
    17b5:	5d                   	pop    %bp
    17b6:	c2 02 00             	ret    $0x2
    17b9:	c3                   	ret    
    17ba:	55                   	push   %bp
    17bb:	8b ec                	mov    %sp,%bp
    17bd:	eb 0a                	jmp    0x17c9
    17bf:	8b 1e 8a 04          	mov    0x48a,%bx
    17c3:	d1 e3                	shl    %bx
    17c5:	ff 97 d8 06          	call   *0x6d8(%bx)
    17c9:	a1 8a 04             	mov    0x48a,%ax
    17cc:	ff 0e 8a 04          	decw   0x48a
    17d0:	0b c0                	or     %ax,%ax
    17d2:	75 eb                	jne    0x17bf
    17d4:	ff 16 80 04          	call   *0x480
    17d8:	ff 16 82 04          	call   *0x482
    17dc:	ff 16 84 04          	call   *0x484
    17e0:	ff 76 04             	pushw  0x4(%bp)
    17e3:	e8 3b eb             	call   0x321
    17e6:	59                   	pop    %cx
    17e7:	5d                   	pop    %bp
    17e8:	c3                   	ret    
    17e9:	00 00                	add    %al,(%bx,%si)
    17eb:	00 00                	add    %al,(%bx,%si)
    17ed:	00 00                	add    %al,(%bx,%si)
    17ef:	2e 8f 06 e9 15       	popw   %cs:0x15e9
    17f4:	2e 8c 1e eb 15       	mov    %ds,%cs:0x15eb
    17f9:	fc                   	cld    
    17fa:	8e 06 90 00          	mov    0x90,%es
    17fe:	be 80 00             	mov    $0x80,%si
    1801:	32 e4                	xor    %ah,%ah
    1803:	26 ac                	lods   %es:(%si),%al
    1805:	40                   	inc    %ax
    1806:	8c c5                	mov    %es,%bp
    1808:	87 d6                	xchg   %dx,%si
    180a:	93                   	xchg   %ax,%bx
    180b:	8b 36 8a 00          	mov    0x8a,%si
    180f:	83 c6 02             	add    $0x2,%si
    1812:	b9 01 00             	mov    $0x1,%cx
    1815:	80 3e 92 00 03       	cmpb   $0x3,0x92
    181a:	72 11                	jb     0x182d
    181c:	8e 06 8c 00          	mov    0x8c,%es
    1820:	8b fe                	mov    %si,%di
    1822:	b1 7f                	mov    $0x7f,%cl
    1824:	32 c0                	xor    %al,%al
    1826:	f2 ae                	repnz scas %es:(%di),%al
    1828:	e3 76                	jcxz   0x18a0
    182a:	80 f1 7f             	xor    $0x7f,%cl
    182d:	83 ec 02             	sub    $0x2,%sp
    1830:	b8 01 00             	mov    $0x1,%ax
    1833:	03 c3                	add    %bx,%ax
    1835:	03 c1                	add    %cx,%ax
    1837:	25 fe ff             	and    $0xfffe,%ax
    183a:	8b fc                	mov    %sp,%di
    183c:	2b f8                	sub    %ax,%di
    183e:	72 60                	jb     0x18a0
    1840:	8b e7                	mov    %di,%sp
    1842:	8c c0                	mov    %es,%ax
    1844:	8e d8                	mov    %ax,%ds
    1846:	8c d0                	mov    %ss,%ax
    1848:	8e c0                	mov    %ax,%es
    184a:	51                   	push   %cx
    184b:	49                   	dec    %cx
    184c:	f3 a4                	rep movsb %ds:(%si),%es:(%di)
    184e:	32 c0                	xor    %al,%al
    1850:	aa                   	stos   %al,%es:(%di)
    1851:	8e dd                	mov    %bp,%ds
    1853:	87 f2                	xchg   %si,%dx
    1855:	87 d9                	xchg   %bx,%cx
    1857:	8b c3                	mov    %bx,%ax
    1859:	8b d0                	mov    %ax,%dx
    185b:	43                   	inc    %bx
    185c:	e8 19 00             	call   0x1878
    185f:	77 07                	ja     0x1868
    1861:	72 40                	jb     0x18a3
    1863:	e8 12 00             	call   0x1878
    1866:	77 f9                	ja     0x1861
    1868:	3c 20                	cmp    $0x20,%al
    186a:	74 08                	je     0x1874
    186c:	3c 0d                	cmp    $0xd,%al
    186e:	74 04                	je     0x1874
    1870:	3c 09                	cmp    $0x9,%al
    1872:	75 e8                	jne    0x185c
    1874:	32 c0                	xor    %al,%al
    1876:	eb e4                	jmp    0x185c
    1878:	0b c0                	or     %ax,%ax
    187a:	74 07                	je     0x1883
    187c:	42                   	inc    %dx
    187d:	aa                   	stos   %al,%es:(%di)
    187e:	0a c0                	or     %al,%al
    1880:	75 01                	jne    0x1883
    1882:	43                   	inc    %bx
    1883:	86 e0                	xchg   %ah,%al
    1885:	32 c0                	xor    %al,%al
    1887:	f9                   	stc    
    1888:	e3 15                	jcxz   0x189f
    188a:	ac                   	lods   %ds:(%si),%al
    188b:	49                   	dec    %cx
    188c:	2c 22                	sub    $0x22,%al
    188e:	74 0f                	je     0x189f
    1890:	04 22                	add    $0x22,%al
    1892:	3c 5c                	cmp    $0x5c,%al
    1894:	75 07                	jne    0x189d
    1896:	80 3c 22             	cmpb   $0x22,(%si)
    1899:	75 02                	jne    0x189d
    189b:	ac                   	lods   %ds:(%si),%al
    189c:	49                   	dec    %cx
    189d:	0b f6                	or     %si,%si
    189f:	c3                   	ret    
    18a0:	e9 3f eb             	jmp    0x3e2
    18a3:	59                   	pop    %cx
    18a4:	03 ca                	add    %dx,%cx
    18a6:	2e 8e 1e eb 15       	mov    %cs:0x15eb,%ds
    18ab:	89 1e 84 00          	mov    %bx,0x84
    18af:	43                   	inc    %bx
    18b0:	03 db                	add    %bx,%bx
    18b2:	8b f4                	mov    %sp,%si
    18b4:	8b ec                	mov    %sp,%bp
    18b6:	2b eb                	sub    %bx,%bp
    18b8:	72 e6                	jb     0x18a0
    18ba:	8b e5                	mov    %bp,%sp
    18bc:	89 2e 86 00          	mov    %bp,0x86
    18c0:	e3 0e                	jcxz   0x18d0
    18c2:	89 76 00             	mov    %si,0x0(%bp)
    18c5:	83 c5 02             	add    $0x2,%bp
    18c8:	36 ac                	lods   %ss:(%si),%al
    18ca:	0a c0                	or     %al,%al
    18cc:	e0 fa                	loopne 0x18c8
    18ce:	74 f0                	je     0x18c0
    18d0:	33 c0                	xor    %ax,%ax
    18d2:	89 46 00             	mov    %ax,0x0(%bp)
    18d5:	2e ff 26 e9 15       	jmp    *%cs:0x15e9
    18da:	8b 0e 8a 00          	mov    0x8a,%cx
    18de:	51                   	push   %cx
    18df:	e8 47 01             	call   0x1a29
    18e2:	59                   	pop    %cx
    18e3:	8b f8                	mov    %ax,%di
    18e5:	0b c0                	or     %ax,%ax
    18e7:	74 24                	je     0x190d
    18e9:	1e                   	push   %ds
    18ea:	1e                   	push   %ds
    18eb:	07                   	pop    %es
    18ec:	8e 1e 8c 00          	mov    0x8c,%ds
    18f0:	33 f6                	xor    %si,%si
    18f2:	fc                   	cld    
    18f3:	f3 a4                	rep movsb %ds:(%si),%es:(%di)
    18f5:	1f                   	pop    %ds
    18f6:	8b f8                	mov    %ax,%di
    18f8:	06                   	push   %es
    18f9:	ff 36 8e 00          	pushw  0x8e
    18fd:	e8 29 01             	call   0x1a29
    1900:	83 c4 02             	add    $0x2,%sp
    1903:	8b d8                	mov    %ax,%bx
    1905:	07                   	pop    %es
    1906:	a3 88 00             	mov    %ax,0x88
    1909:	0b c0                	or     %ax,%ax
    190b:	75 03                	jne    0x1910
    190d:	e9 d2 ea             	jmp    0x3e2
    1910:	33 c0                	xor    %ax,%ax
    1912:	b9 ff ff             	mov    $0xffff,%cx
    1915:	89 3f                	mov    %di,(%bx)
    1917:	83 c3 02             	add    $0x2,%bx
    191a:	f2 ae                	repnz scas %es:(%di),%al
    191c:	26 38 05             	cmp    %al,%es:(%di)
    191f:	75 f4                	jne    0x1915
    1921:	89 07                	mov    %ax,(%bx)
    1923:	c3                   	ret    
    1924:	55                   	push   %bp
    1925:	8b ec                	mov    %sp,%bp
    1927:	83 3e 8a 04 20       	cmpw   $0x20,0x48a
    192c:	75 05                	jne    0x1933
    192e:	b8 01 00             	mov    $0x1,%ax
    1931:	eb 15                	jmp    0x1948
    1933:	8b 46 04             	mov    0x4(%bp),%ax
    1936:	8b 1e 8a 04          	mov    0x48a,%bx
    193a:	d1 e3                	shl    %bx
    193c:	89 87 d8 06          	mov    %ax,0x6d8(%bx)
    1940:	ff 06 8a 04          	incw   0x48a
    1944:	33 c0                	xor    %ax,%ax
    1946:	eb 00                	jmp    0x1948
    1948:	5d                   	pop    %bp
    1949:	c3                   	ret    
    194a:	55                   	push   %bp
    194b:	8b ec                	mov    %sp,%bp
    194d:	56                   	push   %si
    194e:	57                   	push   %di
    194f:	8b 7e 04             	mov    0x4(%bp),%di
    1952:	8b 45 06             	mov    0x6(%di),%ax
    1955:	a3 1a 07             	mov    %ax,0x71a
    1958:	3b c7                	cmp    %di,%ax
    195a:	75 08                	jne    0x1964
    195c:	c7 06 1a 07 00 00    	movw   $0x0,0x71a
    1962:	eb 10                	jmp    0x1974
    1964:	8b 75 04             	mov    0x4(%di),%si
    1967:	8b 1e 1a 07          	mov    0x71a,%bx
    196b:	89 77 04             	mov    %si,0x4(%bx)
    196e:	a1 1a 07             	mov    0x71a,%ax
    1971:	89 44 06             	mov    %ax,0x6(%si)
    1974:	5f                   	pop    %di
    1975:	5e                   	pop    %si
    1976:	5d                   	pop    %bp
    1977:	c3                   	ret    
    1978:	55                   	push   %bp
    1979:	8b ec                	mov    %sp,%bp
    197b:	56                   	push   %si
    197c:	57                   	push   %di
    197d:	8b 7e 04             	mov    0x4(%bp),%di
    1980:	8b 46 06             	mov    0x6(%bp),%ax
    1983:	29 05                	sub    %ax,(%di)
    1985:	8b 35                	mov    (%di),%si
    1987:	03 f7                	add    %di,%si
    1989:	8b 46 06             	mov    0x6(%bp),%ax
    198c:	40                   	inc    %ax
    198d:	89 04                	mov    %ax,(%si)
    198f:	89 7c 02             	mov    %di,0x2(%si)
    1992:	a1 18 07             	mov    0x718,%ax
    1995:	3b c7                	cmp    %di,%ax
    1997:	75 06                	jne    0x199f
    1999:	89 36 18 07          	mov    %si,0x718
    199d:	eb 08                	jmp    0x19a7
    199f:	8b fe                	mov    %si,%di
    19a1:	03 7e 06             	add    0x6(%bp),%di
    19a4:	89 75 02             	mov    %si,0x2(%di)
    19a7:	8b c6                	mov    %si,%ax
    19a9:	05 04 00             	add    $0x4,%ax
    19ac:	eb 00                	jmp    0x19ae
    19ae:	5f                   	pop    %di
    19af:	5e                   	pop    %si
    19b0:	5d                   	pop    %bp
    19b1:	c3                   	ret    
    19b2:	55                   	push   %bp
    19b3:	8b ec                	mov    %sp,%bp
    19b5:	56                   	push   %si
    19b6:	8b 46 04             	mov    0x4(%bp),%ax
    19b9:	33 d2                	xor    %dx,%dx
    19bb:	25 ff ff             	and    $0xffff,%ax
    19be:	81 e2 00 00          	and    $0x0,%dx
    19c2:	52                   	push   %dx
    19c3:	50                   	push   %ax
    19c4:	e8 f9 00             	call   0x1ac0
    19c7:	59                   	pop    %cx
    19c8:	59                   	pop    %cx
    19c9:	8b f0                	mov    %ax,%si
    19cb:	83 fe ff             	cmp    $0xffff,%si
    19ce:	75 04                	jne    0x19d4
    19d0:	33 c0                	xor    %ax,%ax
    19d2:	eb 18                	jmp    0x19ec
    19d4:	a1 18 07             	mov    0x718,%ax
    19d7:	89 44 02             	mov    %ax,0x2(%si)
    19da:	8b 46 04             	mov    0x4(%bp),%ax
    19dd:	40                   	inc    %ax
    19de:	89 04                	mov    %ax,(%si)
    19e0:	89 36 18 07          	mov    %si,0x718
    19e4:	a1 18 07             	mov    0x718,%ax
    19e7:	05 04 00             	add    $0x4,%ax
    19ea:	eb 00                	jmp    0x19ec
    19ec:	5e                   	pop    %si
    19ed:	5d                   	pop    %bp
    19ee:	c3                   	ret    
    19ef:	55                   	push   %bp
    19f0:	8b ec                	mov    %sp,%bp
    19f2:	56                   	push   %si
    19f3:	8b 46 04             	mov    0x4(%bp),%ax
    19f6:	33 d2                	xor    %dx,%dx
    19f8:	25 ff ff             	and    $0xffff,%ax
    19fb:	81 e2 00 00          	and    $0x0,%dx
    19ff:	52                   	push   %dx
    1a00:	50                   	push   %ax
    1a01:	e8 bc 00             	call   0x1ac0
    1a04:	59                   	pop    %cx
    1a05:	59                   	pop    %cx
    1a06:	8b f0                	mov    %ax,%si
    1a08:	83 fe ff             	cmp    $0xffff,%si
    1a0b:	75 04                	jne    0x1a11
    1a0d:	33 c0                	xor    %ax,%ax
    1a0f:	eb 15                	jmp    0x1a26
    1a11:	89 36 1c 07          	mov    %si,0x71c
    1a15:	89 36 18 07          	mov    %si,0x718
    1a19:	8b 46 04             	mov    0x4(%bp),%ax
    1a1c:	40                   	inc    %ax
    1a1d:	89 04                	mov    %ax,(%si)
    1a1f:	8b c6                	mov    %si,%ax
    1a21:	05 04 00             	add    $0x4,%ax
    1a24:	eb 00                	jmp    0x1a26
    1a26:	5e                   	pop    %si
    1a27:	5d                   	pop    %bp
    1a28:	c3                   	ret    
    1a29:	55                   	push   %bp
    1a2a:	8b ec                	mov    %sp,%bp
    1a2c:	56                   	push   %si
    1a2d:	57                   	push   %di
    1a2e:	8b 7e 04             	mov    0x4(%bp),%di
    1a31:	0b ff                	or     %di,%di
    1a33:	74 05                	je     0x1a3a
    1a35:	83 ff f4             	cmp    $0xfff4,%di
    1a38:	76 04                	jbe    0x1a3e
    1a3a:	33 c0                	xor    %ax,%ax
    1a3c:	eb 5a                	jmp    0x1a98
    1a3e:	8b c7                	mov    %di,%ax
    1a40:	05 0b 00             	add    $0xb,%ax
    1a43:	25 f8 ff             	and    $0xfff8,%ax
    1a46:	8b f8                	mov    %ax,%di
    1a48:	83 3e 1c 07 00       	cmpw   $0x0,0x71c
    1a4d:	75 07                	jne    0x1a56
    1a4f:	57                   	push   %di
    1a50:	e8 9c ff             	call   0x19ef
    1a53:	59                   	pop    %cx
    1a54:	eb 42                	jmp    0x1a98
    1a56:	8b 36 1a 07          	mov    0x71a,%si
    1a5a:	8b c6                	mov    %si,%ax
    1a5c:	0b c0                	or     %ax,%ax
    1a5e:	74 31                	je     0x1a91
    1a60:	8b 04                	mov    (%si),%ax
    1a62:	8b d7                	mov    %di,%dx
    1a64:	83 c2 28             	add    $0x28,%dx
    1a67:	3b c2                	cmp    %dx,%ax
    1a69:	72 09                	jb     0x1a74
    1a6b:	57                   	push   %di
    1a6c:	56                   	push   %si
    1a6d:	e8 08 ff             	call   0x1978
    1a70:	59                   	pop    %cx
    1a71:	59                   	pop    %cx
    1a72:	eb 24                	jmp    0x1a98
    1a74:	8b 04                	mov    (%si),%ax
    1a76:	3b c7                	cmp    %di,%ax
    1a78:	72 0e                	jb     0x1a88
    1a7a:	56                   	push   %si
    1a7b:	e8 cc fe             	call   0x194a
    1a7e:	59                   	pop    %cx
    1a7f:	ff 04                	incw   (%si)
    1a81:	8b c6                	mov    %si,%ax
    1a83:	05 04 00             	add    $0x4,%ax
    1a86:	eb 10                	jmp    0x1a98
    1a88:	8b 74 06             	mov    0x6(%si),%si
    1a8b:	3b 36 1a 07          	cmp    0x71a,%si
    1a8f:	75 cf                	jne    0x1a60
    1a91:	57                   	push   %di
    1a92:	e8 1d ff             	call   0x19b2
    1a95:	59                   	pop    %cx
    1a96:	eb 00                	jmp    0x1a98
    1a98:	5f                   	pop    %di
    1a99:	5e                   	pop    %si
    1a9a:	5d                   	pop    %bp
    1a9b:	c3                   	ret    
    1a9c:	55                   	push   %bp
    1a9d:	8b ec                	mov    %sp,%bp
    1a9f:	8b 46 04             	mov    0x4(%bp),%ax
    1aa2:	8b d4                	mov    %sp,%dx
    1aa4:	81 ea 00 01          	sub    $0x100,%dx
    1aa8:	3b c2                	cmp    %dx,%ax
    1aaa:	73 07                	jae    0x1ab3
    1aac:	a3 9e 00             	mov    %ax,0x9e
    1aaf:	33 c0                	xor    %ax,%ax
    1ab1:	eb 0b                	jmp    0x1abe
    1ab3:	c7 06 94 00 08 00    	movw   $0x8,0x94
    1ab9:	b8 ff ff             	mov    $0xffff,%ax
    1abc:	eb 00                	jmp    0x1abe
    1abe:	5d                   	pop    %bp
    1abf:	c3                   	ret    
    1ac0:	55                   	push   %bp
    1ac1:	8b ec                	mov    %sp,%bp
    1ac3:	8b 46 04             	mov    0x4(%bp),%ax
    1ac6:	8b 56 06             	mov    0x6(%bp),%dx
    1ac9:	03 06 9e 00          	add    0x9e,%ax
    1acd:	83 d2 00             	adc    $0x0,%dx
    1ad0:	8b c8                	mov    %ax,%cx
    1ad2:	81 c1 00 01          	add    $0x100,%cx
    1ad6:	83 d2 00             	adc    $0x0,%dx
    1ad9:	0b d2                	or     %dx,%dx
    1adb:	75 0a                	jne    0x1ae7
    1add:	3b cc                	cmp    %sp,%cx
    1adf:	73 06                	jae    0x1ae7
    1ae1:	87 06 9e 00          	xchg   %ax,0x9e
    1ae5:	eb 0b                	jmp    0x1af2
    1ae7:	c7 06 94 00 08 00    	movw   $0x8,0x94
    1aed:	b8 ff ff             	mov    $0xffff,%ax
    1af0:	eb 00                	jmp    0x1af2
    1af2:	5d                   	pop    %bp
    1af3:	c3                   	ret    
    1af4:	55                   	push   %bp
    1af5:	8b ec                	mov    %sp,%bp
    1af7:	ff 76 04             	pushw  0x4(%bp)
    1afa:	e8 9f ff             	call   0x1a9c
    1afd:	59                   	pop    %cx
    1afe:	eb 00                	jmp    0x1b00
    1b00:	5d                   	pop    %bp
    1b01:	c3                   	ret    
    1b02:	55                   	push   %bp
    1b03:	8b ec                	mov    %sp,%bp
    1b05:	8b 46 04             	mov    0x4(%bp),%ax
    1b08:	99                   	cwtd   
    1b09:	52                   	push   %dx
    1b0a:	50                   	push   %ax
    1b0b:	e8 b2 ff             	call   0x1ac0
    1b0e:	8b e5                	mov    %bp,%sp
    1b10:	eb 00                	jmp    0x1b12
    1b12:	5d                   	pop    %bp
    1b13:	c3                   	ret    
    1b14:	55                   	push   %bp
    1b15:	8b ec                	mov    %sp,%bp
    1b17:	83 ec 06             	sub    $0x6,%sp
    1b1a:	56                   	push   %si
    1b1b:	57                   	push   %di
    1b1c:	8b 76 08             	mov    0x8(%bp),%si
    1b1f:	33 ff                	xor    %di,%di
    1b21:	c7 46 fa 00 00       	movw   $0x0,-0x6(%bp)
    1b26:	c7 46 fc 00 00       	movw   $0x0,-0x4(%bp)
    1b2b:	8b de                	mov    %si,%bx
    1b2d:	46                   	inc    %si
    1b2e:	8a 07                	mov    (%bx),%al
    1b30:	88 46 ff             	mov    %al,-0x1(%bp)
    1b33:	3c 72                	cmp    $0x72,%al
    1b35:	75 0a                	jne    0x1b41
    1b37:	bf 01 00             	mov    $0x1,%di
    1b3a:	c7 46 fc 01 00       	movw   $0x1,-0x4(%bp)
    1b3f:	eb 2f                	jmp    0x1b70
    1b41:	80 7e ff 77          	cmpb   $0x77,-0x1(%bp)
    1b45:	75 0f                	jne    0x1b56
    1b47:	bf 02 03             	mov    $0x302,%di
    1b4a:	c7 46 fa 80 00       	movw   $0x80,-0x6(%bp)
    1b4f:	c7 46 fc 02 00       	movw   $0x2,-0x4(%bp)
    1b54:	eb 1a                	jmp    0x1b70
    1b56:	80 7e ff 61          	cmpb   $0x61,-0x1(%bp)
    1b5a:	75 0f                	jne    0x1b6b
    1b5c:	bf 02 09             	mov    $0x902,%di
    1b5f:	c7 46 fa 80 00       	movw   $0x80,-0x6(%bp)
    1b64:	c7 46 fc 02 00       	movw   $0x2,-0x4(%bp)
    1b69:	eb 05                	jmp    0x1b70
    1b6b:	33 c0                	xor    %ax,%ax
    1b6d:	e9 85 00             	jmp    0x1bf5
    1b70:	8a 04                	mov    (%si),%al
    1b72:	88 46 ff             	mov    %al,-0x1(%bp)
    1b75:	46                   	inc    %si
    1b76:	80 7e ff 2b          	cmpb   $0x2b,-0x1(%bp)
    1b7a:	74 11                	je     0x1b8d
    1b7c:	80 3c 2b             	cmpb   $0x2b,(%si)
    1b7f:	75 2b                	jne    0x1bac
    1b81:	80 7e ff 74          	cmpb   $0x74,-0x1(%bp)
    1b85:	74 06                	je     0x1b8d
    1b87:	80 7e ff 62          	cmpb   $0x62,-0x1(%bp)
    1b8b:	75 1f                	jne    0x1bac
    1b8d:	80 7e ff 2b          	cmpb   $0x2b,-0x1(%bp)
    1b91:	75 05                	jne    0x1b98
    1b93:	8a 04                	mov    (%si),%al
    1b95:	88 46 ff             	mov    %al,-0x1(%bp)
    1b98:	8b c7                	mov    %di,%ax
    1b9a:	25 fc ff             	and    $0xfffc,%ax
    1b9d:	0d 04 00             	or     $0x4,%ax
    1ba0:	8b f8                	mov    %ax,%di
    1ba2:	c7 46 fa 80 01       	movw   $0x180,-0x6(%bp)
    1ba7:	c7 46 fc 03 00       	movw   $0x3,-0x4(%bp)
    1bac:	80 7e ff 74          	cmpb   $0x74,-0x1(%bp)
    1bb0:	75 06                	jne    0x1bb8
    1bb2:	81 cf 00 40          	or     $0x4000,%di
    1bb6:	eb 25                	jmp    0x1bdd
    1bb8:	80 7e ff 62          	cmpb   $0x62,-0x1(%bp)
    1bbc:	75 0b                	jne    0x1bc9
    1bbe:	81 cf 00 80          	or     $0x8000,%di
    1bc2:	81 4e fc 40 00       	orw    $0x40,-0x4(%bp)
    1bc7:	eb 14                	jmp    0x1bdd
    1bc9:	a1 f4 05             	mov    0x5f4,%ax
    1bcc:	25 00 c0             	and    $0xc000,%ax
    1bcf:	0b f8                	or     %ax,%di
    1bd1:	8b c7                	mov    %di,%ax
    1bd3:	a9 00 80             	test   $0x8000,%ax
    1bd6:	74 05                	je     0x1bdd
    1bd8:	81 4e fc 40 00       	orw    $0x40,-0x4(%bp)
    1bdd:	c7 06 82 04 6b 21    	movw   $0x216b,0x482
    1be3:	8b 5e 06             	mov    0x6(%bp),%bx
    1be6:	89 3f                	mov    %di,(%bx)
    1be8:	8b 46 fa             	mov    -0x6(%bp),%ax
    1beb:	8b 5e 04             	mov    0x4(%bp),%bx
    1bee:	89 07                	mov    %ax,(%bx)
    1bf0:	8b 46 fc             	mov    -0x4(%bp),%ax
    1bf3:	eb 00                	jmp    0x1bf5
    1bf5:	5f                   	pop    %di
    1bf6:	5e                   	pop    %si
    1bf7:	8b e5                	mov    %bp,%sp
    1bf9:	5d                   	pop    %bp
    1bfa:	c2 06 00             	ret    $0x6
    1bfd:	55                   	push   %bp
    1bfe:	8b ec                	mov    %sp,%bp
    1c00:	83 ec 04             	sub    $0x4,%sp
    1c03:	56                   	push   %si
    1c04:	8b 76 08             	mov    0x8(%bp),%si
    1c07:	ff 76 04             	pushw  0x4(%bp)
    1c0a:	8d 46 fc             	lea    -0x4(%bp),%ax
    1c0d:	50                   	push   %ax
    1c0e:	8d 46 fe             	lea    -0x2(%bp),%ax
    1c11:	50                   	push   %ax
    1c12:	e8 ff fe             	call   0x1b14
    1c15:	89 44 02             	mov    %ax,0x2(%si)
    1c18:	0b c0                	or     %ax,%ax
    1c1a:	74 1c                	je     0x1c38
    1c1c:	80 7c 04 00          	cmpb   $0x0,0x4(%si)
    1c20:	7d 23                	jge    0x1c45
    1c22:	ff 76 fe             	pushw  -0x2(%bp)
    1c25:	ff 76 fc             	pushw  -0x4(%bp)
    1c28:	ff 76 06             	pushw  0x6(%bp)
    1c2b:	e8 36 01             	call   0x1d64
    1c2e:	83 c4 06             	add    $0x6,%sp
    1c31:	88 44 04             	mov    %al,0x4(%si)
    1c34:	0a c0                	or     %al,%al
    1c36:	7d 0d                	jge    0x1c45
    1c38:	c6 44 04 ff          	movb   $0xff,0x4(%si)
    1c3c:	c7 44 02 00 00       	movw   $0x0,0x2(%si)
    1c41:	33 c0                	xor    %ax,%ax
    1c43:	eb 47                	jmp    0x1c8c
    1c45:	8a 44 04             	mov    0x4(%si),%al
    1c48:	98                   	cbtw   
    1c49:	50                   	push   %ax
    1c4a:	e8 69 05             	call   0x21b6
    1c4d:	59                   	pop    %cx
    1c4e:	0b c0                	or     %ax,%ax
    1c50:	74 05                	je     0x1c57
    1c52:	81 4c 02 00 02       	orw    $0x200,0x2(%si)
    1c57:	b8 00 02             	mov    $0x200,%ax
    1c5a:	50                   	push   %ax
    1c5b:	f7 44 02 00 02       	testw  $0x200,0x2(%si)
    1c60:	74 05                	je     0x1c67
    1c62:	b8 01 00             	mov    $0x1,%ax
    1c65:	eb 02                	jmp    0x1c69
    1c67:	33 c0                	xor    %ax,%ax
    1c69:	50                   	push   %ax
    1c6a:	33 c0                	xor    %ax,%ax
    1c6c:	50                   	push   %ax
    1c6d:	56                   	push   %si
    1c6e:	e8 57 05             	call   0x21c8
    1c71:	83 c4 08             	add    $0x8,%sp
    1c74:	0b c0                	or     %ax,%ax
    1c76:	74 0b                	je     0x1c83
    1c78:	56                   	push   %si
    1c79:	e8 1e 06             	call   0x229a
    1c7c:	59                   	pop    %cx
    1c7d:	33 c0                	xor    %ax,%ax
    1c7f:	eb 0b                	jmp    0x1c8c
    1c81:	eb 09                	jmp    0x1c8c
    1c83:	c7 44 0c 00 00       	movw   $0x0,0xc(%si)
    1c88:	8b c6                	mov    %si,%ax
    1c8a:	eb 00                	jmp    0x1c8c
    1c8c:	5e                   	pop    %si
    1c8d:	8b e5                	mov    %bp,%sp
    1c8f:	5d                   	pop    %bp
    1c90:	c2 06 00             	ret    $0x6
    1c93:	56                   	push   %si
    1c94:	be 8c 04             	mov    $0x48c,%si
    1c97:	eb 02                	jmp    0x1c9b
    1c99:	eb 00                	jmp    0x1c9b
    1c9b:	80 7c 04 00          	cmpb   $0x0,0x4(%si)
    1c9f:	7c 0a                	jl     0x1cab
    1ca1:	8b c6                	mov    %si,%ax
    1ca3:	83 c6 10             	add    $0x10,%si
    1ca6:	3d cc 05             	cmp    $0x5cc,%ax
    1ca9:	72 ee                	jb     0x1c99
    1cab:	80 7c 04 00          	cmpb   $0x0,0x4(%si)
    1caf:	7c 06                	jl     0x1cb7
    1cb1:	33 c0                	xor    %ax,%ax
    1cb3:	eb 06                	jmp    0x1cbb
    1cb5:	eb 04                	jmp    0x1cbb
    1cb7:	8b c6                	mov    %si,%ax
    1cb9:	eb 00                	jmp    0x1cbb
    1cbb:	5e                   	pop    %si
    1cbc:	c3                   	ret    
    1cbd:	55                   	push   %bp
    1cbe:	8b ec                	mov    %sp,%bp
    1cc0:	56                   	push   %si
    1cc1:	e8 cf ff             	call   0x1c93
    1cc4:	8b f0                	mov    %ax,%si
    1cc6:	8b c6                	mov    %si,%ax
    1cc8:	0b c0                	or     %ax,%ax
    1cca:	75 06                	jne    0x1cd2
    1ccc:	33 c0                	xor    %ax,%ax
    1cce:	eb 0e                	jmp    0x1cde
    1cd0:	eb 0c                	jmp    0x1cde
    1cd2:	56                   	push   %si
    1cd3:	ff 76 04             	pushw  0x4(%bp)
    1cd6:	ff 76 06             	pushw  0x6(%bp)
    1cd9:	e8 21 ff             	call   0x1bfd
    1cdc:	eb 00                	jmp    0x1cde
    1cde:	5e                   	pop    %si
    1cdf:	5d                   	pop    %bp
    1ce0:	c3                   	ret    
    1ce1:	55                   	push   %bp
    1ce2:	8b ec                	mov    %sp,%bp
    1ce4:	56                   	push   %si
    1ce5:	8b 76 08             	mov    0x8(%bp),%si
    1ce8:	8b 44 0e             	mov    0xe(%si),%ax
    1ceb:	3b c6                	cmp    %si,%ax
    1ced:	74 04                	je     0x1cf3
    1cef:	33 c0                	xor    %ax,%ax
    1cf1:	eb 11                	jmp    0x1d04
    1cf3:	56                   	push   %si
    1cf4:	e8 a3 05             	call   0x229a
    1cf7:	59                   	pop    %cx
    1cf8:	56                   	push   %si
    1cf9:	ff 76 04             	pushw  0x4(%bp)
    1cfc:	ff 76 06             	pushw  0x6(%bp)
    1cff:	e8 fb fe             	call   0x1bfd
    1d02:	eb 00                	jmp    0x1d04
    1d04:	5e                   	pop    %si
    1d05:	5d                   	pop    %bp
    1d06:	c3                   	ret    
    1d07:	55                   	push   %bp
    1d08:	8b ec                	mov    %sp,%bp
    1d0a:	56                   	push   %si
    1d0b:	83 7e 04 00          	cmpw   $0x0,0x4(%bp)
    1d0f:	7c 0b                	jl     0x1d1c
    1d11:	e8 7f ff             	call   0x1c93
    1d14:	8b f0                	mov    %ax,%si
    1d16:	8b c6                	mov    %si,%ax
    1d18:	0b c0                	or     %ax,%ax
    1d1a:	75 04                	jne    0x1d20
    1d1c:	33 c0                	xor    %ax,%ax
    1d1e:	eb 12                	jmp    0x1d32
    1d20:	8a 46 04             	mov    0x4(%bp),%al
    1d23:	88 44 04             	mov    %al,0x4(%si)
    1d26:	56                   	push   %si
    1d27:	33 c0                	xor    %ax,%ax
    1d29:	50                   	push   %ax
    1d2a:	ff 76 06             	pushw  0x6(%bp)
    1d2d:	e8 cd fe             	call   0x1bfd
    1d30:	eb 00                	jmp    0x1d32
    1d32:	5e                   	pop    %si
    1d33:	5d                   	pop    %bp
    1d34:	c3                   	ret    
    1d35:	55                   	push   %bp
    1d36:	8b ec                	mov    %sp,%bp
    1d38:	8b 4e 04             	mov    0x4(%bp),%cx
    1d3b:	b4 3c                	mov    $0x3c,%ah
    1d3d:	8b 56 06             	mov    0x6(%bp),%dx
    1d40:	cd 21                	int    $0x21
    1d42:	72 02                	jb     0x1d46
    1d44:	eb 06                	jmp    0x1d4c
    1d46:	50                   	push   %ax
    1d47:	e8 34 fa             	call   0x177e
    1d4a:	eb 00                	jmp    0x1d4c
    1d4c:	5d                   	pop    %bp
    1d4d:	c2 04 00             	ret    $0x4
    1d50:	55                   	push   %bp
    1d51:	8b ec                	mov    %sp,%bp
    1d53:	8b 5e 04             	mov    0x4(%bp),%bx
    1d56:	2b c9                	sub    %cx,%cx
    1d58:	2b d2                	sub    %dx,%dx
    1d5a:	b4 40                	mov    $0x40,%ah
    1d5c:	cd 21                	int    $0x21
    1d5e:	eb 00                	jmp    0x1d60
    1d60:	5d                   	pop    %bp
    1d61:	c2 02 00             	ret    $0x2
    1d64:	55                   	push   %bp
    1d65:	8b ec                	mov    %sp,%bp
    1d67:	83 ec 04             	sub    $0x4,%sp
    1d6a:	56                   	push   %si
    1d6b:	57                   	push   %di
    1d6c:	8b 7e 06             	mov    0x6(%bp),%di
    1d6f:	f7 c7 00 c0          	test   $0xc000,%di
    1d73:	75 08                	jne    0x1d7d
    1d75:	a1 f4 05             	mov    0x5f4,%ax
    1d78:	25 00 c0             	and    $0xc000,%ax
    1d7b:	0b f8                	or     %ax,%di
    1d7d:	f7 c7 00 01          	test   $0x100,%di
    1d81:	75 03                	jne    0x1d86
    1d83:	e9 8d 00             	jmp    0x1e13
    1d86:	a1 f6 05             	mov    0x5f6,%ax
    1d89:	21 46 08             	and    %ax,0x8(%bp)
    1d8c:	8b 46 08             	mov    0x8(%bp),%ax
    1d8f:	a9 80 01             	test   $0x180,%ax
    1d92:	75 07                	jne    0x1d9b
    1d94:	b8 01 00             	mov    $0x1,%ax
    1d97:	50                   	push   %ax
    1d98:	e8 e3 f9             	call   0x177e
    1d9b:	33 c0                	xor    %ax,%ax
    1d9d:	50                   	push   %ax
    1d9e:	ff 76 04             	pushw  0x4(%bp)
    1da1:	e8 76 0a             	call   0x281a
    1da4:	59                   	pop    %cx
    1da5:	59                   	pop    %cx
    1da6:	89 46 fc             	mov    %ax,-0x4(%bp)
    1da9:	3d ff ff             	cmp    $0xffff,%ax
    1dac:	75 13                	jne    0x1dc1
    1dae:	f7 46 08 80 00       	testw  $0x80,0x8(%bp)
    1db3:	74 04                	je     0x1db9
    1db5:	33 c0                	xor    %ax,%ax
    1db7:	eb 03                	jmp    0x1dbc
    1db9:	b8 01 00             	mov    $0x1,%ax
    1dbc:	89 46 fc             	mov    %ax,-0x4(%bp)
    1dbf:	eb 14                	jmp    0x1dd5
    1dc1:	f7 c7 00 04          	test   $0x400,%di
    1dc5:	74 0c                	je     0x1dd3
    1dc7:	b8 50 00             	mov    $0x50,%ax
    1dca:	50                   	push   %ax
    1dcb:	e8 b0 f9             	call   0x177e
    1dce:	e9 d6 00             	jmp    0x1ea7
    1dd1:	eb 02                	jmp    0x1dd5
    1dd3:	eb 3e                	jmp    0x1e13
    1dd5:	f7 c7 f0 00          	test   $0xf0,%di
    1dd9:	74 1f                	je     0x1dfa
    1ddb:	ff 76 04             	pushw  0x4(%bp)
    1dde:	33 c0                	xor    %ax,%ax
    1de0:	50                   	push   %ax
    1de1:	e8 51 ff             	call   0x1d35
    1de4:	8b f0                	mov    %ax,%si
    1de6:	8b c6                	mov    %si,%ax
    1de8:	0b c0                	or     %ax,%ax
    1dea:	7d 05                	jge    0x1df1
    1dec:	8b c6                	mov    %si,%ax
    1dee:	e9 b6 00             	jmp    0x1ea7
    1df1:	56                   	push   %si
    1df2:	e8 52 05             	call   0x2347
    1df5:	59                   	pop    %cx
    1df6:	eb 20                	jmp    0x1e18
    1df8:	eb 16                	jmp    0x1e10
    1dfa:	ff 76 04             	pushw  0x4(%bp)
    1dfd:	ff 76 fc             	pushw  -0x4(%bp)
    1e00:	e8 32 ff             	call   0x1d35
    1e03:	8b f0                	mov    %ax,%si
    1e05:	8b c6                	mov    %si,%ax
    1e07:	0b c0                	or     %ax,%ax
    1e09:	7d 05                	jge    0x1e10
    1e0b:	8b c6                	mov    %si,%ax
    1e0d:	e9 97 00             	jmp    0x1ea7
    1e10:	eb 70                	jmp    0x1e82
    1e12:	90                   	nop
    1e13:	c7 46 fc 00 00       	movw   $0x0,-0x4(%bp)
    1e18:	57                   	push   %di
    1e19:	ff 76 04             	pushw  0x4(%bp)
    1e1c:	e8 8e 00             	call   0x1ead
    1e1f:	59                   	pop    %cx
    1e20:	59                   	pop    %cx
    1e21:	8b f0                	mov    %ax,%si
    1e23:	8b c6                	mov    %si,%ax
    1e25:	0b c0                	or     %ax,%ax
    1e27:	7c 59                	jl     0x1e82
    1e29:	33 c0                	xor    %ax,%ax
    1e2b:	50                   	push   %ax
    1e2c:	56                   	push   %si
    1e2d:	e8 5d 03             	call   0x218d
    1e30:	59                   	pop    %cx
    1e31:	59                   	pop    %cx
    1e32:	89 46 fe             	mov    %ax,-0x2(%bp)
    1e35:	a9 80 00             	test   $0x80,%ax
    1e38:	74 21                	je     0x1e5b
    1e3a:	81 cf 00 20          	or     $0x2000,%di
    1e3e:	f7 c7 00 80          	test   $0x8000,%di
    1e42:	74 15                	je     0x1e59
    1e44:	8b 46 fe             	mov    -0x2(%bp),%ax
    1e47:	25 ff 00             	and    $0xff,%ax
    1e4a:	0d 20 00             	or     $0x20,%ax
    1e4d:	50                   	push   %ax
    1e4e:	b8 01 00             	mov    $0x1,%ax
    1e51:	50                   	push   %ax
    1e52:	56                   	push   %si
    1e53:	e8 37 03             	call   0x218d
    1e56:	83 c4 06             	add    $0x6,%sp
    1e59:	eb 0a                	jmp    0x1e65
    1e5b:	f7 c7 00 02          	test   $0x200,%di
    1e5f:	74 04                	je     0x1e65
    1e61:	56                   	push   %si
    1e62:	e8 eb fe             	call   0x1d50
    1e65:	83 7e fc 00          	cmpw   $0x0,-0x4(%bp)
    1e69:	74 17                	je     0x1e82
    1e6b:	f7 c7 f0 00          	test   $0xf0,%di
    1e6f:	74 11                	je     0x1e82
    1e71:	b8 01 00             	mov    $0x1,%ax
    1e74:	50                   	push   %ax
    1e75:	b8 01 00             	mov    $0x1,%ax
    1e78:	50                   	push   %ax
    1e79:	ff 76 04             	pushw  0x4(%bp)
    1e7c:	e8 9b 09             	call   0x281a
    1e7f:	83 c4 06             	add    $0x6,%sp
    1e82:	0b f6                	or     %si,%si
    1e84:	7c 1d                	jl     0x1ea3
    1e86:	f7 c7 00 03          	test   $0x300,%di
    1e8a:	74 05                	je     0x1e91
    1e8c:	b8 00 10             	mov    $0x1000,%ax
    1e8f:	eb 02                	jmp    0x1e93
    1e91:	33 c0                	xor    %ax,%ax
    1e93:	8b d7                	mov    %di,%dx
    1e95:	81 e2 ff f8          	and    $0xf8ff,%dx
    1e99:	0b c2                	or     %dx,%ax
    1e9b:	8b de                	mov    %si,%bx
    1e9d:	d1 e3                	shl    %bx
    1e9f:	89 87 cc 05          	mov    %ax,0x5cc(%bx)
    1ea3:	8b c6                	mov    %si,%ax
    1ea5:	eb 00                	jmp    0x1ea7
    1ea7:	5f                   	pop    %di
    1ea8:	5e                   	pop    %si
    1ea9:	8b e5                	mov    %bp,%sp
    1eab:	5d                   	pop    %bp
    1eac:	c3                   	ret    
    1ead:	55                   	push   %bp
    1eae:	8b ec                	mov    %sp,%bp
    1eb0:	56                   	push   %si
    1eb1:	b0 01                	mov    $0x1,%al
    1eb3:	8b 4e 06             	mov    0x6(%bp),%cx
    1eb6:	f7 c1 02 00          	test   $0x2,%cx
    1eba:	75 0a                	jne    0x1ec6
    1ebc:	b0 02                	mov    $0x2,%al
    1ebe:	f7 c1 04 00          	test   $0x4,%cx
    1ec2:	75 02                	jne    0x1ec6
    1ec4:	b0 00                	mov    $0x0,%al
    1ec6:	8b 56 04             	mov    0x4(%bp),%dx
    1ec9:	b1 f0                	mov    $0xf0,%cl
    1ecb:	22 4e 06             	and    0x6(%bp),%cl
    1ece:	0a c1                	or     %cl,%al
    1ed0:	b4 3d                	mov    $0x3d,%ah
    1ed2:	cd 21                	int    $0x21
    1ed4:	72 17                	jb     0x1eed
    1ed6:	8b f0                	mov    %ax,%si
    1ed8:	8b 46 06             	mov    0x6(%bp),%ax
    1edb:	25 ff f8             	and    $0xf8ff,%ax
    1ede:	0d 00 80             	or     $0x8000,%ax
    1ee1:	8b de                	mov    %si,%bx
    1ee3:	d1 e3                	shl    %bx
    1ee5:	89 87 cc 05          	mov    %ax,0x5cc(%bx)
    1ee9:	8b c6                	mov    %si,%ax
    1eeb:	eb 06                	jmp    0x1ef3
    1eed:	50                   	push   %ax
    1eee:	e8 8d f8             	call   0x177e
    1ef1:	eb 00                	jmp    0x1ef3
    1ef3:	5e                   	pop    %si
    1ef4:	5d                   	pop    %bp
    1ef5:	c3                   	ret    
    1ef6:	55                   	push   %bp
    1ef7:	8b ec                	mov    %sp,%bp
    1ef9:	83 ec 02             	sub    $0x2,%sp
    1efc:	56                   	push   %si
    1efd:	57                   	push   %di
    1efe:	8b 5e 04             	mov    0x4(%bp),%bx
    1f01:	8b 37                	mov    (%bx),%si
    1f03:	8b c6                	mov    %si,%ax
    1f05:	89 46 fe             	mov    %ax,-0x2(%bp)
    1f08:	8b 5e 04             	mov    0x4(%bp),%bx
    1f0b:	f7 47 02 40 00       	testw  $0x40,0x2(%bx)
    1f10:	74 04                	je     0x1f16
    1f12:	8b c6                	mov    %si,%ax
    1f14:	eb 1f                	jmp    0x1f35
    1f16:	8b 5e 04             	mov    0x4(%bp),%bx
    1f19:	8b 7f 0a             	mov    0xa(%bx),%di
    1f1c:	eb 0b                	jmp    0x1f29
    1f1e:	8b df                	mov    %di,%bx
    1f20:	47                   	inc    %di
    1f21:	80 3f 0a             	cmpb   $0xa,(%bx)
    1f24:	75 03                	jne    0x1f29
    1f26:	ff 46 fe             	incw   -0x2(%bp)
    1f29:	8b c6                	mov    %si,%ax
    1f2b:	4e                   	dec    %si
    1f2c:	0b c0                	or     %ax,%ax
    1f2e:	75 ee                	jne    0x1f1e
    1f30:	8b 46 fe             	mov    -0x2(%bp),%ax
    1f33:	eb 00                	jmp    0x1f35
    1f35:	5f                   	pop    %di
    1f36:	5e                   	pop    %si
    1f37:	8b e5                	mov    %bp,%sp
    1f39:	5d                   	pop    %bp
    1f3a:	c2 02 00             	ret    $0x2
    1f3d:	55                   	push   %bp
    1f3e:	8b ec                	mov    %sp,%bp
    1f40:	56                   	push   %si
    1f41:	8b 76 04             	mov    0x4(%bp),%si
    1f44:	56                   	push   %si
    1f45:	e8 7e 09             	call   0x28c6
    1f48:	59                   	pop    %cx
    1f49:	0b c0                	or     %ax,%ax
    1f4b:	74 05                	je     0x1f52
    1f4d:	b8 ff ff             	mov    $0xffff,%ax
    1f50:	eb 4c                	jmp    0x1f9e
    1f52:	83 7e 0a 01          	cmpw   $0x1,0xa(%bp)
    1f56:	75 10                	jne    0x1f68
    1f58:	83 3c 00             	cmpw   $0x0,(%si)
    1f5b:	7e 0b                	jle    0x1f68
    1f5d:	56                   	push   %si
    1f5e:	e8 95 ff             	call   0x1ef6
    1f61:	99                   	cwtd   
    1f62:	29 46 06             	sub    %ax,0x6(%bp)
    1f65:	19 56 08             	sbb    %dx,0x8(%bp)
    1f68:	81 64 02 5f fe       	andw   $0xfe5f,0x2(%si)
    1f6d:	c7 04 00 00          	movw   $0x0,(%si)
    1f71:	8b 44 08             	mov    0x8(%si),%ax
    1f74:	89 44 0a             	mov    %ax,0xa(%si)
    1f77:	ff 76 0a             	pushw  0xa(%bp)
    1f7a:	ff 76 08             	pushw  0x8(%bp)
    1f7d:	ff 76 06             	pushw  0x6(%bp)
    1f80:	8a 44 04             	mov    0x4(%si),%al
    1f83:	98                   	cbtw   
    1f84:	50                   	push   %ax
    1f85:	e8 8d 06             	call   0x2615
    1f88:	83 c4 08             	add    $0x8,%sp
    1f8b:	83 fa ff             	cmp    $0xffff,%dx
    1f8e:	75 0a                	jne    0x1f9a
    1f90:	3d ff ff             	cmp    $0xffff,%ax
    1f93:	75 05                	jne    0x1f9a
    1f95:	b8 ff ff             	mov    $0xffff,%ax
    1f98:	eb 02                	jmp    0x1f9c
    1f9a:	33 c0                	xor    %ax,%ax
    1f9c:	eb 00                	jmp    0x1f9e
    1f9e:	5e                   	pop    %si
    1f9f:	5d                   	pop    %bp
    1fa0:	c3                   	ret    
    1fa1:	55                   	push   %bp
    1fa2:	8b ec                	mov    %sp,%bp
    1fa4:	83 ec 04             	sub    $0x4,%sp
    1fa7:	56                   	push   %si
    1fa8:	8b 76 04             	mov    0x4(%bp),%si
    1fab:	56                   	push   %si
    1fac:	e8 17 09             	call   0x28c6
    1faf:	59                   	pop    %cx
    1fb0:	0b c0                	or     %ax,%ax
    1fb2:	74 08                	je     0x1fbc
    1fb4:	ba ff ff             	mov    $0xffff,%dx
    1fb7:	b8 ff ff             	mov    $0xffff,%ax
    1fba:	eb 35                	jmp    0x1ff1
    1fbc:	8a 44 04             	mov    0x4(%si),%al
    1fbf:	98                   	cbtw   
    1fc0:	50                   	push   %ax
    1fc1:	e8 39 19             	call   0x38fd
    1fc4:	59                   	pop    %cx
    1fc5:	89 56 fe             	mov    %dx,-0x2(%bp)
    1fc8:	89 46 fc             	mov    %ax,-0x4(%bp)
    1fcb:	83 3c 00             	cmpw   $0x0,(%si)
    1fce:	7e 19                	jle    0x1fe9
    1fd0:	8b 56 fe             	mov    -0x2(%bp),%dx
    1fd3:	8b 46 fc             	mov    -0x4(%bp),%ax
    1fd6:	52                   	push   %dx
    1fd7:	50                   	push   %ax
    1fd8:	56                   	push   %si
    1fd9:	e8 1a ff             	call   0x1ef6
    1fdc:	99                   	cwtd   
    1fdd:	8b d8                	mov    %ax,%bx
    1fdf:	8b ca                	mov    %dx,%cx
    1fe1:	58                   	pop    %ax
    1fe2:	5a                   	pop    %dx
    1fe3:	2b c3                	sub    %bx,%ax
    1fe5:	1b d1                	sbb    %cx,%dx
    1fe7:	eb 06                	jmp    0x1fef
    1fe9:	8b 56 fe             	mov    -0x2(%bp),%dx
    1fec:	8b 46 fc             	mov    -0x4(%bp),%ax
    1fef:	eb 00                	jmp    0x1ff1
    1ff1:	5e                   	pop    %si
    1ff2:	8b e5                	mov    %bp,%sp
    1ff4:	5d                   	pop    %bp
    1ff5:	c3                   	ret    
    1ff6:	56                   	push   %si
    1ff7:	57                   	push   %di
    1ff8:	bf 14 00             	mov    $0x14,%di
    1ffb:	be 8c 04             	mov    $0x48c,%si
    1ffe:	eb 13                	jmp    0x2013
    2000:	8b 44 02             	mov    0x2(%si),%ax
    2003:	25 00 03             	and    $0x300,%ax
    2006:	3d 00 03             	cmp    $0x300,%ax
    2009:	75 05                	jne    0x2010
    200b:	56                   	push   %si
    200c:	e8 b7 08             	call   0x28c6
    200f:	59                   	pop    %cx
    2010:	83 c6 10             	add    $0x10,%si
    2013:	8b c7                	mov    %di,%ax
    2015:	4f                   	dec    %di
    2016:	0b c0                	or     %ax,%ax
    2018:	75 e6                	jne    0x2000
    201a:	5f                   	pop    %di
    201b:	5e                   	pop    %si
    201c:	c3                   	ret    
    201d:	55                   	push   %bp
    201e:	8b ec                	mov    %sp,%bp
    2020:	56                   	push   %si
    2021:	8b 76 04             	mov    0x4(%bp),%si
    2024:	f7 44 02 00 02       	testw  $0x200,0x2(%si)
    2029:	74 03                	je     0x202e
    202b:	e8 c8 ff             	call   0x1ff6
    202e:	ff 74 06             	pushw  0x6(%si)
    2031:	8b 44 08             	mov    0x8(%si),%ax
    2034:	89 44 0a             	mov    %ax,0xa(%si)
    2037:	50                   	push   %ax
    2038:	8a 44 04             	mov    0x4(%si),%al
    203b:	98                   	cbtw   
    203c:	50                   	push   %ax
    203d:	e8 6b 03             	call   0x23ab
    2040:	83 c4 06             	add    $0x6,%sp
    2043:	89 04                	mov    %ax,(%si)
    2045:	0b c0                	or     %ax,%ax
    2047:	7e 0b                	jle    0x2054
    2049:	81 64 02 df ff       	andw   $0xffdf,0x2(%si)
    204e:	33 c0                	xor    %ax,%ax
    2050:	eb 23                	jmp    0x2075
    2052:	eb 1c                	jmp    0x2070
    2054:	83 3c 00             	cmpw   $0x0,(%si)
    2057:	75 0e                	jne    0x2067
    2059:	8b 44 02             	mov    0x2(%si),%ax
    205c:	25 7f fe             	and    $0xfe7f,%ax
    205f:	0d 20 00             	or     $0x20,%ax
    2062:	89 44 02             	mov    %ax,0x2(%si)
    2065:	eb 09                	jmp    0x2070
    2067:	c7 04 00 00          	movw   $0x0,(%si)
    206b:	81 4c 02 10 00       	orw    $0x10,0x2(%si)
    2070:	b8 ff ff             	mov    $0xffff,%ax
    2073:	eb 00                	jmp    0x2075
    2075:	5e                   	pop    %si
    2076:	5d                   	pop    %bp
    2077:	c2 02 00             	ret    $0x2
    207a:	55                   	push   %bp
    207b:	8b ec                	mov    %sp,%bp
    207d:	56                   	push   %si
    207e:	8b 76 04             	mov    0x4(%bp),%si
    2081:	ff 04                	incw   (%si)
    2083:	56                   	push   %si
    2084:	e8 06 00             	call   0x208d
    2087:	59                   	pop    %cx
    2088:	eb 00                	jmp    0x208a
    208a:	5e                   	pop    %si
    208b:	5d                   	pop    %bp
    208c:	c3                   	ret    
    208d:	55                   	push   %bp
    208e:	8b ec                	mov    %sp,%bp
    2090:	83 ec 02             	sub    $0x2,%sp
    2093:	56                   	push   %si
    2094:	8b 76 04             	mov    0x4(%bp),%si
    2097:	ff 0c                	decw   (%si)
    2099:	7c 0e                	jl     0x20a9
    209b:	ff 44 0a             	incw   0xa(%si)
    209e:	8b 5c 0a             	mov    0xa(%si),%bx
    20a1:	8a 47 ff             	mov    -0x1(%bx),%al
    20a4:	b4 00                	mov    $0x0,%ah
    20a6:	e9 d4 00             	jmp    0x217d
    20a9:	ff 04                	incw   (%si)
    20ab:	7c 07                	jl     0x20b4
    20ad:	f7 44 02 10 01       	testw  $0x110,0x2(%si)
    20b2:	74 0b                	je     0x20bf
    20b4:	81 4c 02 10 00       	orw    $0x10,0x2(%si)
    20b9:	b8 ff ff             	mov    $0xffff,%ax
    20bc:	e9 be 00             	jmp    0x217d
    20bf:	81 4c 02 80 00       	orw    $0x80,0x2(%si)
    20c4:	83 7c 06 00          	cmpw   $0x0,0x6(%si)
    20c8:	74 13                	je     0x20dd
    20ca:	56                   	push   %si
    20cb:	e8 4f ff             	call   0x201d
    20ce:	0b c0                	or     %ax,%ax
    20d0:	74 06                	je     0x20d8
    20d2:	b8 ff ff             	mov    $0xffff,%ax
    20d5:	e9 a5 00             	jmp    0x217d
    20d8:	eb bd                	jmp    0x2097
    20da:	e9 a0 00             	jmp    0x217d
    20dd:	83 3e f8 05 00       	cmpw   $0x0,0x5f8
    20e2:	75 38                	jne    0x211c
    20e4:	b8 8c 04             	mov    $0x48c,%ax
    20e7:	3b c6                	cmp    %si,%ax
    20e9:	75 31                	jne    0x211c
    20eb:	8a 44 04             	mov    0x4(%si),%al
    20ee:	98                   	cbtw   
    20ef:	50                   	push   %ax
    20f0:	e8 c3 00             	call   0x21b6
    20f3:	59                   	pop    %cx
    20f4:	0b c0                	or     %ax,%ax
    20f6:	75 05                	jne    0x20fd
    20f8:	81 64 02 ff fd       	andw   $0xfdff,0x2(%si)
    20fd:	b8 00 02             	mov    $0x200,%ax
    2100:	50                   	push   %ax
    2101:	f7 44 02 00 02       	testw  $0x200,0x2(%si)
    2106:	74 05                	je     0x210d
    2108:	b8 01 00             	mov    $0x1,%ax
    210b:	eb 02                	jmp    0x210f
    210d:	33 c0                	xor    %ax,%ax
    210f:	50                   	push   %ax
    2110:	33 c0                	xor    %ax,%ax
    2112:	50                   	push   %ax
    2113:	56                   	push   %si
    2114:	e8 b1 00             	call   0x21c8
    2117:	83 c4 08             	add    $0x8,%sp
    211a:	eb a3                	jmp    0x20bf
    211c:	f7 44 02 00 02       	testw  $0x200,0x2(%si)
    2121:	74 03                	je     0x2126
    2123:	e8 d0 fe             	call   0x1ff6
    2126:	b8 01 00             	mov    $0x1,%ax
    2129:	50                   	push   %ax
    212a:	8d 46 ff             	lea    -0x1(%bp),%ax
    212d:	50                   	push   %ax
    212e:	8a 44 04             	mov    0x4(%si),%al
    2131:	98                   	cbtw   
    2132:	50                   	push   %ax
    2133:	e8 31 03             	call   0x2467
    2136:	83 c4 06             	add    $0x6,%sp
    2139:	3d 01 00             	cmp    $0x1,%ax
    213c:	74 26                	je     0x2164
    213e:	8a 44 04             	mov    0x4(%si),%al
    2141:	98                   	cbtw   
    2142:	50                   	push   %ax
    2143:	e8 12 07             	call   0x2858
    2146:	59                   	pop    %cx
    2147:	3d 01 00             	cmp    $0x1,%ax
    214a:	74 07                	je     0x2153
    214c:	81 4c 02 10 00       	orw    $0x10,0x2(%si)
    2151:	eb 0c                	jmp    0x215f
    2153:	8b 44 02             	mov    0x2(%si),%ax
    2156:	25 7f fe             	and    $0xfe7f,%ax
    2159:	0d 20 00             	or     $0x20,%ax
    215c:	89 44 02             	mov    %ax,0x2(%si)
    215f:	b8 ff ff             	mov    $0xffff,%ax
    2162:	eb 19                	jmp    0x217d
    2164:	80 7e ff 0d          	cmpb   $0xd,-0x1(%bp)
    2168:	75 07                	jne    0x2171
    216a:	f7 44 02 40 00       	testw  $0x40,0x2(%si)
    216f:	74 ab                	je     0x211c
    2171:	81 64 02 df ff       	andw   $0xffdf,0x2(%si)
    2176:	8a 46 ff             	mov    -0x1(%bp),%al
    2179:	b4 00                	mov    $0x0,%ah
    217b:	eb 00                	jmp    0x217d
    217d:	5e                   	pop    %si
    217e:	8b e5                	mov    %bp,%sp
    2180:	5d                   	pop    %bp
    2181:	c3                   	ret    
    2182:	b8 8c 04             	mov    $0x48c,%ax
    2185:	50                   	push   %ax
    2186:	e8 04 ff             	call   0x208d
    2189:	59                   	pop    %cx
    218a:	eb 00                	jmp    0x218c
    218c:	c3                   	ret    
    218d:	55                   	push   %bp
    218e:	8b ec                	mov    %sp,%bp
    2190:	b4 44                	mov    $0x44,%ah
    2192:	8a 46 06             	mov    0x6(%bp),%al
    2195:	8b 5e 04             	mov    0x4(%bp),%bx
    2198:	8b 4e 0a             	mov    0xa(%bp),%cx
    219b:	8b 56 08             	mov    0x8(%bp),%dx
    219e:	cd 21                	int    $0x21
    21a0:	72 0c                	jb     0x21ae
    21a2:	83 7e 06 00          	cmpw   $0x0,0x6(%bp)
    21a6:	75 04                	jne    0x21ac
    21a8:	8b c2                	mov    %dx,%ax
    21aa:	eb 08                	jmp    0x21b4
    21ac:	eb 06                	jmp    0x21b4
    21ae:	50                   	push   %ax
    21af:	e8 cc f5             	call   0x177e
    21b2:	eb 00                	jmp    0x21b4
    21b4:	5d                   	pop    %bp
    21b5:	c3                   	ret    
    21b6:	55                   	push   %bp
    21b7:	8b ec                	mov    %sp,%bp
    21b9:	b8 00 44             	mov    $0x4400,%ax
    21bc:	8b 5e 04             	mov    0x4(%bp),%bx
    21bf:	cd 21                	int    $0x21
    21c1:	8b c2                	mov    %dx,%ax
    21c3:	25 80 00             	and    $0x80,%ax
    21c6:	5d                   	pop    %bp
    21c7:	c3                   	ret    
    21c8:	55                   	push   %bp
    21c9:	8b ec                	mov    %sp,%bp
    21cb:	56                   	push   %si
    21cc:	57                   	push   %di
    21cd:	8b 7e 0a             	mov    0xa(%bp),%di
    21d0:	8b 76 04             	mov    0x4(%bp),%si
    21d3:	8b 44 0e             	mov    0xe(%si),%ax
    21d6:	3b c6                	cmp    %si,%ax
    21d8:	75 0c                	jne    0x21e6
    21da:	83 7e 08 02          	cmpw   $0x2,0x8(%bp)
    21de:	7f 06                	jg     0x21e6
    21e0:	81 ff ff 7f          	cmp    $0x7fff,%di
    21e4:	76 06                	jbe    0x21ec
    21e6:	b8 ff ff             	mov    $0xffff,%ax
    21e9:	e9 aa 00             	jmp    0x2296
    21ec:	83 3e fa 05 00       	cmpw   $0x0,0x5fa
    21f1:	75 0f                	jne    0x2202
    21f3:	b8 9c 04             	mov    $0x49c,%ax
    21f6:	3b c6                	cmp    %si,%ax
    21f8:	75 08                	jne    0x2202
    21fa:	c7 06 fa 05 01 00    	movw   $0x1,0x5fa
    2200:	eb 14                	jmp    0x2216
    2202:	83 3e f8 05 00       	cmpw   $0x0,0x5f8
    2207:	75 0d                	jne    0x2216
    2209:	b8 8c 04             	mov    $0x48c,%ax
    220c:	3b c6                	cmp    %si,%ax
    220e:	75 06                	jne    0x2216
    2210:	c7 06 f8 05 01 00    	movw   $0x1,0x5f8
    2216:	83 3c 00             	cmpw   $0x0,(%si)
    2219:	74 0f                	je     0x222a
    221b:	b8 01 00             	mov    $0x1,%ax
    221e:	50                   	push   %ax
    221f:	33 c0                	xor    %ax,%ax
    2221:	50                   	push   %ax
    2222:	50                   	push   %ax
    2223:	56                   	push   %si
    2224:	e8 16 fd             	call   0x1f3d
    2227:	83 c4 08             	add    $0x8,%sp
    222a:	f7 44 02 04 00       	testw  $0x4,0x2(%si)
    222f:	74 07                	je     0x2238
    2231:	ff 74 08             	pushw  0x8(%si)
    2234:	e8 b0 0f             	call   0x31e7
    2237:	59                   	pop    %cx
    2238:	81 64 02 f3 ff       	andw   $0xfff3,0x2(%si)
    223d:	c7 44 06 00 00       	movw   $0x0,0x6(%si)
    2242:	8b c6                	mov    %si,%ax
    2244:	05 05 00             	add    $0x5,%ax
    2247:	89 44 08             	mov    %ax,0x8(%si)
    224a:	89 44 0a             	mov    %ax,0xa(%si)
    224d:	83 7e 08 02          	cmpw   $0x2,0x8(%bp)
    2251:	74 3f                	je     0x2292
    2253:	0b ff                	or     %di,%di
    2255:	76 3b                	jbe    0x2292
    2257:	c7 06 80 04 8a 21    	movw   $0x218a,0x480
    225d:	83 7e 06 00          	cmpw   $0x0,0x6(%bp)
    2261:	75 18                	jne    0x227b
    2263:	57                   	push   %di
    2264:	e8 c2 f7             	call   0x1a29
    2267:	59                   	pop    %cx
    2268:	89 46 06             	mov    %ax,0x6(%bp)
    226b:	0b c0                	or     %ax,%ax
    226d:	74 07                	je     0x2276
    226f:	81 4c 02 04 00       	orw    $0x4,0x2(%si)
    2274:	eb 05                	jmp    0x227b
    2276:	b8 ff ff             	mov    $0xffff,%ax
    2279:	eb 1b                	jmp    0x2296
    227b:	8b 46 06             	mov    0x6(%bp),%ax
    227e:	89 44 0a             	mov    %ax,0xa(%si)
    2281:	89 44 08             	mov    %ax,0x8(%si)
    2284:	89 7c 06             	mov    %di,0x6(%si)
    2287:	83 7e 08 01          	cmpw   $0x1,0x8(%bp)
    228b:	75 05                	jne    0x2292
    228d:	81 4c 02 08 00       	orw    $0x8,0x2(%si)
    2292:	33 c0                	xor    %ax,%ax
    2294:	eb 00                	jmp    0x2296
    2296:	5f                   	pop    %di
    2297:	5e                   	pop    %si
    2298:	5d                   	pop    %bp
    2299:	c3                   	ret    
    229a:	55                   	push   %bp
    229b:	8b ec                	mov    %sp,%bp
    229d:	56                   	push   %si
    229e:	57                   	push   %di
    229f:	8b 76 04             	mov    0x4(%bp),%si
    22a2:	bf ff ff             	mov    $0xffff,%di
    22a5:	8b 44 0e             	mov    0xe(%si),%ax
    22a8:	3b c6                	cmp    %si,%ax
    22aa:	74 04                	je     0x22b0
    22ac:	8b c7                	mov    %di,%ax
    22ae:	eb 66                	jmp    0x2316
    22b0:	83 7c 06 00          	cmpw   $0x0,0x6(%si)
    22b4:	74 20                	je     0x22d6
    22b6:	83 3c 00             	cmpw   $0x0,(%si)
    22b9:	7d 0d                	jge    0x22c8
    22bb:	56                   	push   %si
    22bc:	e8 07 06             	call   0x28c6
    22bf:	59                   	pop    %cx
    22c0:	0b c0                	or     %ax,%ax
    22c2:	74 04                	je     0x22c8
    22c4:	8b c7                	mov    %di,%ax
    22c6:	eb 4e                	jmp    0x2316
    22c8:	f7 44 02 04 00       	testw  $0x4,0x2(%si)
    22cd:	74 07                	je     0x22d6
    22cf:	ff 74 08             	pushw  0x8(%si)
    22d2:	e8 12 0f             	call   0x31e7
    22d5:	59                   	pop    %cx
    22d6:	80 7c 04 00          	cmpb   $0x0,0x4(%si)
    22da:	7c 0b                	jl     0x22e7
    22dc:	8a 44 04             	mov    0x4(%si),%al
    22df:	98                   	cbtw   
    22e0:	50                   	push   %ax
    22e1:	e8 36 00             	call   0x231a
    22e4:	59                   	pop    %cx
    22e5:	8b f8                	mov    %ax,%di
    22e7:	c7 44 02 00 00       	movw   $0x0,0x2(%si)
    22ec:	c7 44 06 00 00       	movw   $0x0,0x6(%si)
    22f1:	c7 04 00 00          	movw   $0x0,(%si)
    22f5:	c6 44 04 ff          	movb   $0xff,0x4(%si)
    22f9:	83 7c 0c 00          	cmpw   $0x0,0xc(%si)
    22fd:	74 13                	je     0x2312
    22ff:	33 c0                	xor    %ax,%ax
    2301:	50                   	push   %ax
    2302:	ff 74 0c             	pushw  0xc(%si)
    2305:	e8 23 04             	call   0x272b
    2308:	50                   	push   %ax
    2309:	e8 9d 04             	call   0x27a9
    230c:	59                   	pop    %cx
    230d:	c7 44 0c 00 00       	movw   $0x0,0xc(%si)
    2312:	8b c7                	mov    %di,%ax
    2314:	eb 00                	jmp    0x2316
    2316:	5f                   	pop    %di
    2317:	5e                   	pop    %si
    2318:	5d                   	pop    %bp
    2319:	c3                   	ret    
    231a:	55                   	push   %bp
    231b:	8b ec                	mov    %sp,%bp
    231d:	56                   	push   %si
    231e:	8b 76 04             	mov    0x4(%bp),%si
    2321:	0b f6                	or     %si,%si
    2323:	7c 05                	jl     0x232a
    2325:	83 fe 14             	cmp    $0x14,%si
    2328:	7c 09                	jl     0x2333
    232a:	b8 06 00             	mov    $0x6,%ax
    232d:	50                   	push   %ax
    232e:	e8 4d f4             	call   0x177e
    2331:	eb 11                	jmp    0x2344
    2333:	8b de                	mov    %si,%bx
    2335:	d1 e3                	shl    %bx
    2337:	c7 87 cc 05 ff ff    	movw   $0xffff,0x5cc(%bx)
    233d:	56                   	push   %si
    233e:	e8 06 00             	call   0x2347
    2341:	59                   	pop    %cx
    2342:	eb 00                	jmp    0x2344
    2344:	5e                   	pop    %si
    2345:	5d                   	pop    %bp
    2346:	c3                   	ret    
    2347:	55                   	push   %bp
    2348:	8b ec                	mov    %sp,%bp
    234a:	56                   	push   %si
    234b:	8b 76 04             	mov    0x4(%bp),%si
    234e:	b4 3e                	mov    $0x3e,%ah
    2350:	8b de                	mov    %si,%bx
    2352:	cd 21                	int    $0x21
    2354:	72 0c                	jb     0x2362
    2356:	d1 e3                	shl    %bx
    2358:	c7 87 cc 05 ff ff    	movw   $0xffff,0x5cc(%bx)
    235e:	33 c0                	xor    %ax,%ax
    2360:	eb 06                	jmp    0x2368
    2362:	50                   	push   %ax
    2363:	e8 18 f4             	call   0x177e
    2366:	eb 00                	jmp    0x2368
    2368:	5e                   	pop    %si
    2369:	5d                   	pop    %bp
    236a:	c3                   	ret    
    236b:	56                   	push   %si
    236c:	57                   	push   %di
    236d:	bf 0f 00             	mov    $0xf,%di
    2370:	be dc 04             	mov    $0x4dc,%si
    2373:	eb 0f                	jmp    0x2384
    2375:	f7 44 02 03 00       	testw  $0x3,0x2(%si)
    237a:	74 05                	je     0x2381
    237c:	56                   	push   %si
    237d:	e8 1a ff             	call   0x229a
    2380:	59                   	pop    %cx
    2381:	83 c6 10             	add    $0x10,%si
    2384:	4f                   	dec    %di
    2385:	75 ee                	jne    0x2375
    2387:	5f                   	pop    %di
    2388:	5e                   	pop    %si
    2389:	c3                   	ret    
    238a:	56                   	push   %si
    238b:	57                   	push   %di
    238c:	bf 04 00             	mov    $0x4,%di
    238f:	be 8c 04             	mov    $0x48c,%si
    2392:	eb 10                	jmp    0x23a4
    2394:	f7 44 02 03 00       	testw  $0x3,0x2(%si)
    2399:	74 05                	je     0x23a0
    239b:	56                   	push   %si
    239c:	e8 27 05             	call   0x28c6
    239f:	59                   	pop    %cx
    23a0:	4f                   	dec    %di
    23a1:	83 c6 10             	add    $0x10,%si
    23a4:	0b ff                	or     %di,%di
    23a6:	75 ec                	jne    0x2394
    23a8:	5f                   	pop    %di
    23a9:	5e                   	pop    %si
    23aa:	c3                   	ret    
    23ab:	55                   	push   %bp
    23ac:	8b ec                	mov    %sp,%bp
    23ae:	83 ec 04             	sub    $0x4,%sp
    23b1:	56                   	push   %si
    23b2:	57                   	push   %di
    23b3:	8b 46 08             	mov    0x8(%bp),%ax
    23b6:	40                   	inc    %ax
    23b7:	3d 02 00             	cmp    $0x2,%ax
    23ba:	72 0d                	jb     0x23c9
    23bc:	8b 5e 04             	mov    0x4(%bp),%bx
    23bf:	d1 e3                	shl    %bx
    23c1:	f7 87 cc 05 00 02    	testw  $0x200,0x5cc(%bx)
    23c7:	74 05                	je     0x23ce
    23c9:	33 c0                	xor    %ax,%ax
    23cb:	e9 93 00             	jmp    0x2461
    23ce:	ff 76 08             	pushw  0x8(%bp)
    23d1:	ff 76 06             	pushw  0x6(%bp)
    23d4:	ff 76 04             	pushw  0x4(%bp)
    23d7:	e8 8d 00             	call   0x2467
    23da:	83 c4 06             	add    $0x6,%sp
    23dd:	89 46 fc             	mov    %ax,-0x4(%bp)
    23e0:	8b 46 fc             	mov    -0x4(%bp),%ax
    23e3:	40                   	inc    %ax
    23e4:	3d 02 00             	cmp    $0x2,%ax
    23e7:	72 0d                	jb     0x23f6
    23e9:	8b 5e 04             	mov    0x4(%bp),%bx
    23ec:	d1 e3                	shl    %bx
    23ee:	f7 87 cc 05 00 80    	testw  $0x8000,0x5cc(%bx)
    23f4:	74 06                	je     0x23fc
    23f6:	8b 46 fc             	mov    -0x4(%bp),%ax
    23f9:	eb 66                	jmp    0x2461
    23fb:	90                   	nop
    23fc:	8b 4e fc             	mov    -0x4(%bp),%cx
    23ff:	8b 76 06             	mov    0x6(%bp),%si
    2402:	1e                   	push   %ds
    2403:	07                   	pop    %es
    2404:	8b fe                	mov    %si,%di
    2406:	8b de                	mov    %si,%bx
    2408:	fc                   	cld    
    2409:	ac                   	lods   %ds:(%si),%al
    240a:	3c 1a                	cmp    $0x1a,%al
    240c:	74 2d                	je     0x243b
    240e:	3c 0d                	cmp    $0xd,%al
    2410:	74 05                	je     0x2417
    2412:	aa                   	stos   %al,%es:(%di)
    2413:	e2 f4                	loop   0x2409
    2415:	eb 1c                	jmp    0x2433
    2417:	e2 f0                	loop   0x2409
    2419:	06                   	push   %es
    241a:	53                   	push   %bx
    241b:	b8 01 00             	mov    $0x1,%ax
    241e:	50                   	push   %ax
    241f:	8d 46 ff             	lea    -0x1(%bp),%ax
    2422:	50                   	push   %ax
    2423:	ff 76 04             	pushw  0x4(%bp)
    2426:	e8 3e 00             	call   0x2467
    2429:	83 c4 06             	add    $0x6,%sp
    242c:	5b                   	pop    %bx
    242d:	07                   	pop    %es
    242e:	fc                   	cld    
    242f:	8a 46 ff             	mov    -0x1(%bp),%al
    2432:	aa                   	stos   %al,%es:(%di)
    2433:	3b fb                	cmp    %bx,%di
    2435:	75 02                	jne    0x2439
    2437:	eb 95                	jmp    0x23ce
    2439:	eb 20                	jmp    0x245b
    243b:	53                   	push   %bx
    243c:	b8 02 00             	mov    $0x2,%ax
    243f:	50                   	push   %ax
    2440:	f7 d9                	neg    %cx
    2442:	1b c0                	sbb    %ax,%ax
    2444:	50                   	push   %ax
    2445:	51                   	push   %cx
    2446:	ff 76 04             	pushw  0x4(%bp)
    2449:	e8 c9 01             	call   0x2615
    244c:	83 c4 08             	add    $0x8,%sp
    244f:	8b 5e 04             	mov    0x4(%bp),%bx
    2452:	d1 e3                	shl    %bx
    2454:	81 8f cc 05 00 02    	orw    $0x200,0x5cc(%bx)
    245a:	5b                   	pop    %bx
    245b:	8b c7                	mov    %di,%ax
    245d:	2b c3                	sub    %bx,%ax
    245f:	eb 00                	jmp    0x2461
    2461:	5f                   	pop    %di
    2462:	5e                   	pop    %si
    2463:	8b e5                	mov    %bp,%sp
    2465:	5d                   	pop    %bp
    2466:	c3                   	ret    
    2467:	55                   	push   %bp
    2468:	8b ec                	mov    %sp,%bp
    246a:	b4 3f                	mov    $0x3f,%ah
    246c:	8b 5e 04             	mov    0x4(%bp),%bx
    246f:	8b 4e 08             	mov    0x8(%bp),%cx
    2472:	8b 56 06             	mov    0x6(%bp),%dx
    2475:	cd 21                	int    $0x21
    2477:	72 02                	jb     0x247b
    2479:	eb 06                	jmp    0x2481
    247b:	50                   	push   %ax
    247c:	e8 ff f2             	call   0x177e
    247f:	eb 00                	jmp    0x2481
    2481:	5d                   	pop    %bp
    2482:	c3                   	ret    
    2483:	55                   	push   %bp
    2484:	8b ec                	mov    %sp,%bp
    2486:	81 ec 8a 00          	sub    $0x8a,%sp
    248a:	56                   	push   %si
    248b:	57                   	push   %di
    248c:	8b 46 08             	mov    0x8(%bp),%ax
    248f:	40                   	inc    %ax
    2490:	3d 02 00             	cmp    $0x2,%ax
    2493:	73 05                	jae    0x249a
    2495:	33 c0                	xor    %ax,%ax
    2497:	e9 f6 00             	jmp    0x2590
    249a:	8b 5e 04             	mov    0x4(%bp),%bx
    249d:	d1 e3                	shl    %bx
    249f:	f7 87 cc 05 00 80    	testw  $0x8000,0x5cc(%bx)
    24a5:	74 12                	je     0x24b9
    24a7:	ff 76 08             	pushw  0x8(%bp)
    24aa:	ff 76 06             	pushw  0x6(%bp)
    24ad:	ff 76 04             	pushw  0x4(%bp)
    24b0:	e8 e3 00             	call   0x2596
    24b3:	83 c4 06             	add    $0x6,%sp
    24b6:	e9 d7 00             	jmp    0x2590
    24b9:	8b 5e 04             	mov    0x4(%bp),%bx
    24bc:	d1 e3                	shl    %bx
    24be:	81 a7 cc 05 ff fd    	andw   $0xfdff,0x5cc(%bx)
    24c4:	8b 46 06             	mov    0x6(%bp),%ax
    24c7:	89 86 7c ff          	mov    %ax,-0x84(%bp)
    24cb:	8b 46 08             	mov    0x8(%bp),%ax
    24ce:	89 86 78 ff          	mov    %ax,-0x88(%bp)
    24d2:	8d b6 7e ff          	lea    -0x82(%bp),%si
    24d6:	eb 6d                	jmp    0x2545
    24d8:	ff 8e 78 ff          	decw   -0x88(%bp)
    24dc:	8b 9e 7c ff          	mov    -0x84(%bp),%bx
    24e0:	ff 86 7c ff          	incw   -0x84(%bp)
    24e4:	8a 07                	mov    (%bx),%al
    24e6:	88 86 7b ff          	mov    %al,-0x85(%bp)
    24ea:	3c 0a                	cmp    $0xa,%al
    24ec:	75 04                	jne    0x24f2
    24ee:	c6 04 0d             	movb   $0xd,(%si)
    24f1:	46                   	inc    %si
    24f2:	8a 86 7b ff          	mov    -0x85(%bp),%al
    24f6:	88 04                	mov    %al,(%si)
    24f8:	46                   	inc    %si
    24f9:	8d 86 7e ff          	lea    -0x82(%bp),%ax
    24fd:	8b d6                	mov    %si,%dx
    24ff:	2b d0                	sub    %ax,%dx
    2501:	81 fa 80 00          	cmp    $0x80,%dx
    2505:	7c 3e                	jl     0x2545
    2507:	8d 86 7e ff          	lea    -0x82(%bp),%ax
    250b:	8b fe                	mov    %si,%di
    250d:	2b f8                	sub    %ax,%di
    250f:	57                   	push   %di
    2510:	8d 86 7e ff          	lea    -0x82(%bp),%ax
    2514:	50                   	push   %ax
    2515:	ff 76 04             	pushw  0x4(%bp)
    2518:	e8 7b 00             	call   0x2596
    251b:	83 c4 06             	add    $0x6,%sp
    251e:	89 86 76 ff          	mov    %ax,-0x8a(%bp)
    2522:	3b c7                	cmp    %di,%ax
    2524:	74 1b                	je     0x2541
    2526:	83 be 76 ff 00       	cmpw   $0x0,-0x8a(%bp)
    252b:	73 05                	jae    0x2532
    252d:	b8 ff ff             	mov    $0xffff,%ax
    2530:	eb 0d                	jmp    0x253f
    2532:	8b 46 08             	mov    0x8(%bp),%ax
    2535:	2b 86 78 ff          	sub    -0x88(%bp),%ax
    2539:	03 86 76 ff          	add    -0x8a(%bp),%ax
    253d:	2b c7                	sub    %di,%ax
    253f:	eb 4f                	jmp    0x2590
    2541:	8d b6 7e ff          	lea    -0x82(%bp),%si
    2545:	83 be 78 ff 00       	cmpw   $0x0,-0x88(%bp)
    254a:	74 03                	je     0x254f
    254c:	e9 89 ff             	jmp    0x24d8
    254f:	8d 86 7e ff          	lea    -0x82(%bp),%ax
    2553:	8b fe                	mov    %si,%di
    2555:	2b f8                	sub    %ax,%di
    2557:	8b c7                	mov    %di,%ax
    2559:	0b c0                	or     %ax,%ax
    255b:	76 2e                	jbe    0x258b
    255d:	57                   	push   %di
    255e:	8d 86 7e ff          	lea    -0x82(%bp),%ax
    2562:	50                   	push   %ax
    2563:	ff 76 04             	pushw  0x4(%bp)
    2566:	e8 2d 00             	call   0x2596
    2569:	83 c4 06             	add    $0x6,%sp
    256c:	89 86 76 ff          	mov    %ax,-0x8a(%bp)
    2570:	3b c7                	cmp    %di,%ax
    2572:	74 17                	je     0x258b
    2574:	83 be 76 ff 00       	cmpw   $0x0,-0x8a(%bp)
    2579:	73 05                	jae    0x2580
    257b:	b8 ff ff             	mov    $0xffff,%ax
    257e:	eb 09                	jmp    0x2589
    2580:	8b 46 08             	mov    0x8(%bp),%ax
    2583:	03 86 76 ff          	add    -0x8a(%bp),%ax
    2587:	2b c7                	sub    %di,%ax
    2589:	eb 05                	jmp    0x2590
    258b:	8b 46 08             	mov    0x8(%bp),%ax
    258e:	eb 00                	jmp    0x2590
    2590:	5f                   	pop    %di
    2591:	5e                   	pop    %si
    2592:	8b e5                	mov    %bp,%sp
    2594:	5d                   	pop    %bp
    2595:	c3                   	ret    
    2596:	55                   	push   %bp
    2597:	8b ec                	mov    %sp,%bp
    2599:	8b 5e 04             	mov    0x4(%bp),%bx
    259c:	d1 e3                	shl    %bx
    259e:	f7 87 cc 05 00 08    	testw  $0x800,0x5cc(%bx)
    25a4:	74 10                	je     0x25b6
    25a6:	b8 02 00             	mov    $0x2,%ax
    25a9:	50                   	push   %ax
    25aa:	33 c0                	xor    %ax,%ax
    25ac:	50                   	push   %ax
    25ad:	50                   	push   %ax
    25ae:	ff 76 04             	pushw  0x4(%bp)
    25b1:	e8 61 00             	call   0x2615
    25b4:	8b e5                	mov    %bp,%sp
    25b6:	b4 40                	mov    $0x40,%ah
    25b8:	8b 5e 04             	mov    0x4(%bp),%bx
    25bb:	8b 4e 08             	mov    0x8(%bp),%cx
    25be:	8b 56 06             	mov    0x6(%bp),%dx
    25c1:	cd 21                	int    $0x21
    25c3:	72 0f                	jb     0x25d4
    25c5:	50                   	push   %ax
    25c6:	8b 5e 04             	mov    0x4(%bp),%bx
    25c9:	d1 e3                	shl    %bx
    25cb:	81 8f cc 05 00 10    	orw    $0x1000,0x5cc(%bx)
    25d1:	58                   	pop    %ax
    25d2:	eb 06                	jmp    0x25da
    25d4:	50                   	push   %ax
    25d5:	e8 a6 f1             	call   0x177e
    25d8:	eb 00                	jmp    0x25da
    25da:	5d                   	pop    %bp
    25db:	c3                   	ret    
    25dc:	55                   	push   %bp
    25dd:	8b ec                	mov    %sp,%bp
    25df:	56                   	push   %si
    25e0:	33 c0                	xor    %ax,%ax
    25e2:	50                   	push   %ax
    25e3:	ff 76 04             	pushw  0x4(%bp)
    25e6:	e8 31 02             	call   0x281a
    25e9:	59                   	pop    %cx
    25ea:	59                   	pop    %cx
    25eb:	8b f0                	mov    %ax,%si
    25ed:	83 fe ff             	cmp    $0xffff,%si
    25f0:	75 04                	jne    0x25f6
    25f2:	8b c6                	mov    %si,%ax
    25f4:	eb 1c                	jmp    0x2612
    25f6:	f7 46 06 02 00       	testw  $0x2,0x6(%bp)
    25fb:	74 06                	je     0x2603
    25fd:	f7 c6 01 00          	test   $0x1,%si
    2601:	75 04                	jne    0x2607
    2603:	33 c0                	xor    %ax,%ax
    2605:	eb 0b                	jmp    0x2612
    2607:	c7 06 94 00 05 00    	movw   $0x5,0x94
    260d:	b8 ff ff             	mov    $0xffff,%ax
    2610:	eb 00                	jmp    0x2612
    2612:	5e                   	pop    %si
    2613:	5d                   	pop    %bp
    2614:	c3                   	ret    
    2615:	55                   	push   %bp
    2616:	8b ec                	mov    %sp,%bp
    2618:	8b 5e 04             	mov    0x4(%bp),%bx
    261b:	d1 e3                	shl    %bx
    261d:	81 a7 cc 05 ff fd    	andw   $0xfdff,0x5cc(%bx)
    2623:	b4 42                	mov    $0x42,%ah
    2625:	8a 46 0a             	mov    0xa(%bp),%al
    2628:	8b 5e 04             	mov    0x4(%bp),%bx
    262b:	8b 4e 08             	mov    0x8(%bp),%cx
    262e:	8b 56 06             	mov    0x6(%bp),%dx
    2631:	cd 21                	int    $0x21
    2633:	72 02                	jb     0x2637
    2635:	eb 07                	jmp    0x263e
    2637:	50                   	push   %ax
    2638:	e8 43 f1             	call   0x177e
    263b:	99                   	cwtd   
    263c:	eb 00                	jmp    0x263e
    263e:	5d                   	pop    %bp
    263f:	c3                   	ret    
    2640:	55                   	push   %bp
    2641:	8b ec                	mov    %sp,%bp
    2643:	83 ec 22             	sub    $0x22,%sp
    2646:	56                   	push   %si
    2647:	57                   	push   %di
    2648:	06                   	push   %es
    2649:	8b 7e 0a             	mov    0xa(%bp),%di
    264c:	1e                   	push   %ds
    264d:	07                   	pop    %es
    264e:	8b 5e 08             	mov    0x8(%bp),%bx
    2651:	83 fb 24             	cmp    $0x24,%bx
    2654:	77 58                	ja     0x26ae
    2656:	80 fb 02             	cmp    $0x2,%bl
    2659:	72 53                	jb     0x26ae
    265b:	8b 46 0c             	mov    0xc(%bp),%ax
    265e:	8b 4e 0e             	mov    0xe(%bp),%cx
    2661:	0b c9                	or     %cx,%cx
    2663:	7d 11                	jge    0x2676
    2665:	80 7e 06 00          	cmpb   $0x0,0x6(%bp)
    2669:	74 0b                	je     0x2676
    266b:	c6 05 2d             	movb   $0x2d,(%di)
    266e:	47                   	inc    %di
    266f:	f7 d9                	neg    %cx
    2671:	f7 d8                	neg    %ax
    2673:	83 d9 00             	sbb    $0x0,%cx
    2676:	8d 76 de             	lea    -0x22(%bp),%si
    2679:	e3 0f                	jcxz   0x268a
    267b:	91                   	xchg   %ax,%cx
    267c:	2b d2                	sub    %dx,%dx
    267e:	f7 f3                	div    %bx
    2680:	91                   	xchg   %ax,%cx
    2681:	f7 f3                	div    %bx
    2683:	88 14                	mov    %dl,(%si)
    2685:	46                   	inc    %si
    2686:	e3 09                	jcxz   0x2691
    2688:	eb f1                	jmp    0x267b
    268a:	2b d2                	sub    %dx,%dx
    268c:	f7 f3                	div    %bx
    268e:	88 14                	mov    %dl,(%si)
    2690:	46                   	inc    %si
    2691:	0b c0                	or     %ax,%ax
    2693:	75 f5                	jne    0x268a
    2695:	8d 4e de             	lea    -0x22(%bp),%cx
    2698:	f7 d9                	neg    %cx
    269a:	03 ce                	add    %si,%cx
    269c:	fc                   	cld    
    269d:	4e                   	dec    %si
    269e:	8a 04                	mov    (%si),%al
    26a0:	2c 0a                	sub    $0xa,%al
    26a2:	73 04                	jae    0x26a8
    26a4:	04 3a                	add    $0x3a,%al
    26a6:	eb 03                	jmp    0x26ab
    26a8:	02 46 04             	add    0x4(%bp),%al
    26ab:	aa                   	stos   %al,%es:(%di)
    26ac:	e2 ef                	loop   0x269d
    26ae:	b0 00                	mov    $0x0,%al
    26b0:	aa                   	stos   %al,%es:(%di)
    26b1:	07                   	pop    %es
    26b2:	8b 46 0a             	mov    0xa(%bp),%ax
    26b5:	eb 00                	jmp    0x26b7
    26b7:	5f                   	pop    %di
    26b8:	5e                   	pop    %si
    26b9:	8b e5                	mov    %bp,%sp
    26bb:	5d                   	pop    %bp
    26bc:	c2 0c 00             	ret    $0xc
    26bf:	55                   	push   %bp
    26c0:	8b ec                	mov    %sp,%bp
    26c2:	83 7e 08 0a          	cmpw   $0xa,0x8(%bp)
    26c6:	75 06                	jne    0x26ce
    26c8:	8b 46 04             	mov    0x4(%bp),%ax
    26cb:	99                   	cwtd   
    26cc:	eb 05                	jmp    0x26d3
    26ce:	8b 46 04             	mov    0x4(%bp),%ax
    26d1:	33 d2                	xor    %dx,%dx
    26d3:	52                   	push   %dx
    26d4:	50                   	push   %ax
    26d5:	ff 76 06             	pushw  0x6(%bp)
    26d8:	ff 76 08             	pushw  0x8(%bp)
    26db:	b0 01                	mov    $0x1,%al
    26dd:	50                   	push   %ax
    26de:	b0 61                	mov    $0x61,%al
    26e0:	50                   	push   %ax
    26e1:	e8 5c ff             	call   0x2640
    26e4:	eb 00                	jmp    0x26e6
    26e6:	5d                   	pop    %bp
    26e7:	c3                   	ret    
    26e8:	55                   	push   %bp
    26e9:	8b ec                	mov    %sp,%bp
    26eb:	ff 76 06             	pushw  0x6(%bp)
    26ee:	ff 76 04             	pushw  0x4(%bp)
    26f1:	ff 76 08             	pushw  0x8(%bp)
    26f4:	ff 76 0a             	pushw  0xa(%bp)
    26f7:	b0 00                	mov    $0x0,%al
    26f9:	50                   	push   %ax
    26fa:	b0 61                	mov    $0x61,%al
    26fc:	50                   	push   %ax
    26fd:	e8 40 ff             	call   0x2640
    2700:	eb 00                	jmp    0x2702
    2702:	5d                   	pop    %bp
    2703:	c3                   	ret    
    2704:	55                   	push   %bp
    2705:	8b ec                	mov    %sp,%bp
    2707:	ff 76 06             	pushw  0x6(%bp)
    270a:	ff 76 04             	pushw  0x4(%bp)
    270d:	ff 76 08             	pushw  0x8(%bp)
    2710:	ff 76 0a             	pushw  0xa(%bp)
    2713:	83 7e 0a 0a          	cmpw   $0xa,0xa(%bp)
    2717:	75 05                	jne    0x271e
    2719:	b8 01 00             	mov    $0x1,%ax
    271c:	eb 02                	jmp    0x2720
    271e:	33 c0                	xor    %ax,%ax
    2720:	50                   	push   %ax
    2721:	b0 61                	mov    $0x61,%al
    2723:	50                   	push   %ax
    2724:	e8 19 ff             	call   0x2640
    2727:	eb 00                	jmp    0x2729
    2729:	5d                   	pop    %bp
    272a:	c3                   	ret    
    272b:	55                   	push   %bp
    272c:	8b ec                	mov    %sp,%bp
    272e:	56                   	push   %si
    272f:	8b 76 06             	mov    0x6(%bp),%si
    2732:	0b f6                	or     %si,%si
    2734:	75 03                	jne    0x2739
    2736:	be 20 07             	mov    $0x720,%si
    2739:	c6 04 00             	movb   $0x0,(%si)
    273c:	b8 fc 05             	mov    $0x5fc,%ax
    273f:	50                   	push   %ax
    2740:	56                   	push   %si
    2741:	e8 7d 00             	call   0x27c1
    2744:	59                   	pop    %cx
    2745:	59                   	pop    %cx
    2746:	b8 0a 00             	mov    $0xa,%ax
    2749:	50                   	push   %ax
    274a:	8b c6                	mov    %si,%ax
    274c:	05 03 00             	add    $0x3,%ax
    274f:	50                   	push   %ax
    2750:	8b 46 04             	mov    0x4(%bp),%ax
    2753:	33 d2                	xor    %dx,%dx
    2755:	52                   	push   %dx
    2756:	50                   	push   %ax
    2757:	e8 8e ff             	call   0x26e8
    275a:	83 c4 08             	add    $0x8,%sp
    275d:	b8 00 06             	mov    $0x600,%ax
    2760:	50                   	push   %ax
    2761:	56                   	push   %si
    2762:	e8 5c 00             	call   0x27c1
    2765:	59                   	pop    %cx
    2766:	59                   	pop    %cx
    2767:	8b c6                	mov    %si,%ax
    2769:	eb 00                	jmp    0x276b
    276b:	5e                   	pop    %si
    276c:	5d                   	pop    %bp
    276d:	c2 04 00             	ret    $0x4
    2770:	55                   	push   %bp
    2771:	8b ec                	mov    %sp,%bp
    2773:	56                   	push   %si
    2774:	8b 76 04             	mov    0x4(%bp),%si
    2777:	56                   	push   %si
    2778:	83 3e 1e 07 ff       	cmpw   $0xffff,0x71e
    277d:	75 05                	jne    0x2784
    277f:	b8 02 00             	mov    $0x2,%ax
    2782:	eb 03                	jmp    0x2787
    2784:	b8 01 00             	mov    $0x1,%ax
    2787:	01 06 1e 07          	add    %ax,0x71e
    278b:	a1 1e 07             	mov    0x71e,%ax
    278e:	50                   	push   %ax
    278f:	e8 99 ff             	call   0x272b
    2792:	8b f0                	mov    %ax,%si
    2794:	33 c0                	xor    %ax,%ax
    2796:	50                   	push   %ax
    2797:	56                   	push   %si
    2798:	e8 41 fe             	call   0x25dc
    279b:	59                   	pop    %cx
    279c:	59                   	pop    %cx
    279d:	3d ff ff             	cmp    $0xffff,%ax
    27a0:	75 d5                	jne    0x2777
    27a2:	8b c6                	mov    %si,%ax
    27a4:	eb 00                	jmp    0x27a6
    27a6:	5e                   	pop    %si
    27a7:	5d                   	pop    %bp
    27a8:	c3                   	ret    
    27a9:	55                   	push   %bp
    27aa:	8b ec                	mov    %sp,%bp
    27ac:	b4 41                	mov    $0x41,%ah
    27ae:	8b 56 04             	mov    0x4(%bp),%dx
    27b1:	cd 21                	int    $0x21
    27b3:	72 04                	jb     0x27b9
    27b5:	33 c0                	xor    %ax,%ax
    27b7:	eb 06                	jmp    0x27bf
    27b9:	50                   	push   %ax
    27ba:	e8 c1 ef             	call   0x177e
    27bd:	eb 00                	jmp    0x27bf
    27bf:	5d                   	pop    %bp
    27c0:	c3                   	ret    
    27c1:	55                   	push   %bp
    27c2:	8b ec                	mov    %sp,%bp
    27c4:	56                   	push   %si
    27c5:	57                   	push   %di
    27c6:	fc                   	cld    
    27c7:	8b 7e 04             	mov    0x4(%bp),%di
    27ca:	1e                   	push   %ds
    27cb:	07                   	pop    %es
    27cc:	8b d7                	mov    %di,%dx
    27ce:	32 c0                	xor    %al,%al
    27d0:	b9 ff ff             	mov    $0xffff,%cx
    27d3:	f2 ae                	repnz scas %es:(%di),%al
    27d5:	8d 75 ff             	lea    -0x1(%di),%si
    27d8:	8b 7e 06             	mov    0x6(%bp),%di
    27db:	b9 ff ff             	mov    $0xffff,%cx
    27de:	f2 ae                	repnz scas %es:(%di),%al
    27e0:	f7 d1                	not    %cx
    27e2:	2b f9                	sub    %cx,%di
    27e4:	87 f7                	xchg   %si,%di
    27e6:	f7 c6 01 00          	test   $0x1,%si
    27ea:	74 02                	je     0x27ee
    27ec:	a4                   	movsb  %ds:(%si),%es:(%di)
    27ed:	49                   	dec    %cx
    27ee:	d1 e9                	shr    %cx
    27f0:	f3 a5                	rep movsw %ds:(%si),%es:(%di)
    27f2:	73 01                	jae    0x27f5
    27f4:	a4                   	movsb  %ds:(%si),%es:(%di)
    27f5:	8b c2                	mov    %dx,%ax
    27f7:	eb 00                	jmp    0x27f9
    27f9:	5f                   	pop    %di
    27fa:	5e                   	pop    %si
    27fb:	5d                   	pop    %bp
    27fc:	c3                   	ret    
    27fd:	55                   	push   %bp
    27fe:	8b ec                	mov    %sp,%bp
    2800:	56                   	push   %si
    2801:	57                   	push   %di
    2802:	1e                   	push   %ds
    2803:	07                   	pop    %es
    2804:	fc                   	cld    
    2805:	8b 7e 04             	mov    0x4(%bp),%di
    2808:	32 c0                	xor    %al,%al
    280a:	b9 ff ff             	mov    $0xffff,%cx
    280d:	f2 ae                	repnz scas %es:(%di),%al
    280f:	8b c1                	mov    %cx,%ax
    2811:	f7 d0                	not    %ax
    2813:	48                   	dec    %ax
    2814:	eb 00                	jmp    0x2816
    2816:	5f                   	pop    %di
    2817:	5e                   	pop    %si
    2818:	5d                   	pop    %bp
    2819:	c3                   	ret    
    281a:	55                   	push   %bp
    281b:	8b ec                	mov    %sp,%bp
    281d:	b4 43                	mov    $0x43,%ah
    281f:	8a 46 06             	mov    0x6(%bp),%al
    2822:	8b 4e 08             	mov    0x8(%bp),%cx
    2825:	8b 56 04             	mov    0x4(%bp),%dx
    2828:	cd 21                	int    $0x21
    282a:	72 03                	jb     0x282f
    282c:	91                   	xchg   %ax,%cx
    282d:	eb 06                	jmp    0x2835
    282f:	50                   	push   %ax
    2830:	e8 4b ef             	call   0x177e
    2833:	eb 00                	jmp    0x2835
    2835:	5d                   	pop    %bp
    2836:	c3                   	ret    
    2837:	ba 06 06             	mov    $0x606,%dx
    283a:	eb 03                	jmp    0x283f
    283c:	ba 0b 06             	mov    $0x60b,%dx
    283f:	b9 05 00             	mov    $0x5,%cx
    2842:	90                   	nop
    2843:	b4 40                	mov    $0x40,%ah
    2845:	bb 02 00             	mov    $0x2,%bx
    2848:	cd 21                	int    $0x21
    284a:	b9 27 00             	mov    $0x27,%cx
    284d:	90                   	nop
    284e:	ba 10 06             	mov    $0x610,%dx
    2851:	b4 40                	mov    $0x40,%ah
    2853:	cd 21                	int    $0x21
    2855:	e9 8a db             	jmp    0x3e2
    2858:	55                   	push   %bp
    2859:	8b ec                	mov    %sp,%bp
    285b:	83 ec 04             	sub    $0x4,%sp
    285e:	8b 5e 04             	mov    0x4(%bp),%bx
    2861:	d1 e3                	shl    %bx
    2863:	f7 87 cc 05 00 02    	testw  $0x200,0x5cc(%bx)
    2869:	74 06                	je     0x2871
    286b:	b8 01 00             	mov    $0x1,%ax
    286e:	eb 52                	jmp    0x28c2
    2870:	90                   	nop
    2871:	b8 00 44             	mov    $0x4400,%ax
    2874:	8b 5e 04             	mov    0x4(%bp),%bx
    2877:	cd 21                	int    $0x21
    2879:	72 41                	jb     0x28bc
    287b:	f6 c2 80             	test   $0x80,%dl
    287e:	75 38                	jne    0x28b8
    2880:	b8 01 42             	mov    $0x4201,%ax
    2883:	33 c9                	xor    %cx,%cx
    2885:	33 d2                	xor    %dx,%dx
    2887:	cd 21                	int    $0x21
    2889:	72 31                	jb     0x28bc
    288b:	52                   	push   %dx
    288c:	50                   	push   %ax
    288d:	b8 02 42             	mov    $0x4202,%ax
    2890:	33 c9                	xor    %cx,%cx
    2892:	33 d2                	xor    %dx,%dx
    2894:	cd 21                	int    $0x21
    2896:	89 46 fc             	mov    %ax,-0x4(%bp)
    2899:	89 56 fe             	mov    %dx,-0x2(%bp)
    289c:	5a                   	pop    %dx
    289d:	59                   	pop    %cx
    289e:	72 1c                	jb     0x28bc
    28a0:	b8 00 42             	mov    $0x4200,%ax
    28a3:	cd 21                	int    $0x21
    28a5:	72 15                	jb     0x28bc
    28a7:	3b 56 fe             	cmp    -0x2(%bp),%dx
    28aa:	72 0c                	jb     0x28b8
    28ac:	77 05                	ja     0x28b3
    28ae:	3b 46 fc             	cmp    -0x4(%bp),%ax
    28b1:	72 05                	jb     0x28b8
    28b3:	b8 01 00             	mov    $0x1,%ax
    28b6:	eb 0a                	jmp    0x28c2
    28b8:	33 c0                	xor    %ax,%ax
    28ba:	eb 06                	jmp    0x28c2
    28bc:	50                   	push   %ax
    28bd:	e8 be ee             	call   0x177e
    28c0:	eb 00                	jmp    0x28c2
    28c2:	8b e5                	mov    %bp,%sp
    28c4:	5d                   	pop    %bp
    28c5:	c3                   	ret    
    28c6:	55                   	push   %bp
    28c7:	8b ec                	mov    %sp,%bp
    28c9:	56                   	push   %si
    28ca:	57                   	push   %di
    28cb:	8b 76 04             	mov    0x4(%bp),%si
    28ce:	8b 44 0e             	mov    0xe(%si),%ax
    28d1:	3b c6                	cmp    %si,%ax
    28d3:	74 05                	je     0x28da
    28d5:	b8 ff ff             	mov    $0xffff,%ax
    28d8:	eb 66                	jmp    0x2940
    28da:	83 3c 00             	cmpw   $0x0,(%si)
    28dd:	7c 2d                	jl     0x290c
    28df:	f7 44 02 08 00       	testw  $0x8,0x2(%si)
    28e4:	75 0c                	jne    0x28f2
    28e6:	8b 44 0a             	mov    0xa(%si),%ax
    28e9:	8b d6                	mov    %si,%dx
    28eb:	83 c2 05             	add    $0x5,%dx
    28ee:	3b c2                	cmp    %dx,%ax
    28f0:	75 16                	jne    0x2908
    28f2:	c7 04 00 00          	movw   $0x0,(%si)
    28f6:	8b 44 0a             	mov    0xa(%si),%ax
    28f9:	8b d6                	mov    %si,%dx
    28fb:	83 c2 05             	add    $0x5,%dx
    28fe:	3b c2                	cmp    %dx,%ax
    2900:	75 06                	jne    0x2908
    2902:	8b 44 08             	mov    0x8(%si),%ax
    2905:	89 44 0a             	mov    %ax,0xa(%si)
    2908:	33 c0                	xor    %ax,%ax
    290a:	eb 34                	jmp    0x2940
    290c:	8b 7c 06             	mov    0x6(%si),%di
    290f:	03 3c                	add    (%si),%di
    2911:	47                   	inc    %di
    2912:	29 3c                	sub    %di,(%si)
    2914:	57                   	push   %di
    2915:	8b 44 08             	mov    0x8(%si),%ax
    2918:	89 44 0a             	mov    %ax,0xa(%si)
    291b:	50                   	push   %ax
    291c:	8a 44 04             	mov    0x4(%si),%al
    291f:	98                   	cbtw   
    2920:	50                   	push   %ax
    2921:	e8 5f fb             	call   0x2483
    2924:	83 c4 06             	add    $0x6,%sp
    2927:	3b c7                	cmp    %di,%ax
    2929:	74 11                	je     0x293c
    292b:	f7 44 02 00 02       	testw  $0x200,0x2(%si)
    2930:	75 0a                	jne    0x293c
    2932:	81 4c 02 10 00       	orw    $0x10,0x2(%si)
    2937:	b8 ff ff             	mov    $0xffff,%ax
    293a:	eb 04                	jmp    0x2940
    293c:	33 c0                	xor    %ax,%ax
    293e:	eb 00                	jmp    0x2940
    2940:	5f                   	pop    %di
    2941:	5e                   	pop    %si
    2942:	5d                   	pop    %bp
    2943:	c3                   	ret    
    2944:	55                   	push   %bp
    2945:	8b ec                	mov    %sp,%bp
    2947:	b8 7a 28             	mov    $0x287a,%ax
    294a:	50                   	push   %ax
    294b:	b8 9c 04             	mov    $0x49c,%ax
    294e:	50                   	push   %ax
    294f:	ff 76 04             	pushw  0x4(%bp)
    2952:	8d 46 06             	lea    0x6(%bp),%ax
    2955:	50                   	push   %ax
    2956:	e8 54 02             	call   0x2bad
    2959:	eb 00                	jmp    0x295b
    295b:	5d                   	pop    %bp
    295c:	c3                   	ret    
    295d:	55                   	push   %bp
    295e:	8b ec                	mov    %sp,%bp
    2960:	8b 5e 06             	mov    0x6(%bp),%bx
    2963:	ff 0f                	decw   (%bx)
    2965:	ff 76 06             	pushw  0x6(%bp)
    2968:	8a 46 04             	mov    0x4(%bp),%al
    296b:	98                   	cbtw   
    296c:	50                   	push   %ax
    296d:	e8 06 00             	call   0x2976
    2970:	8b e5                	mov    %bp,%sp
    2972:	eb 00                	jmp    0x2974
    2974:	5d                   	pop    %bp
    2975:	c3                   	ret    
    2976:	55                   	push   %bp
    2977:	8b ec                	mov    %sp,%bp
    2979:	83 ec 02             	sub    $0x2,%sp
    297c:	56                   	push   %si
    297d:	8b 76 06             	mov    0x6(%bp),%si
    2980:	8a 46 04             	mov    0x4(%bp),%al
    2983:	88 46 ff             	mov    %al,-0x1(%bp)
    2986:	ff 04                	incw   (%si)
    2988:	7d 36                	jge    0x29c0
    298a:	8a 46 ff             	mov    -0x1(%bp),%al
    298d:	ff 44 0a             	incw   0xa(%si)
    2990:	8b 5c 0a             	mov    0xa(%si),%bx
    2993:	88 47 ff             	mov    %al,-0x1(%bx)
    2996:	f7 44 02 08 00       	testw  $0x8,0x2(%si)
    299b:	74 1b                	je     0x29b8
    299d:	80 7e ff 0a          	cmpb   $0xa,-0x1(%bp)
    29a1:	74 06                	je     0x29a9
    29a3:	80 7e ff 0d          	cmpb   $0xd,-0x1(%bp)
    29a7:	75 0f                	jne    0x29b8
    29a9:	56                   	push   %si
    29aa:	e8 19 ff             	call   0x28c6
    29ad:	59                   	pop    %cx
    29ae:	0b c0                	or     %ax,%ax
    29b0:	74 06                	je     0x29b8
    29b2:	b8 ff ff             	mov    $0xffff,%ax
    29b5:	e9 a7 00             	jmp    0x2a5f
    29b8:	8a 46 ff             	mov    -0x1(%bp),%al
    29bb:	b4 00                	mov    $0x0,%ah
    29bd:	e9 9f 00             	jmp    0x2a5f
    29c0:	ff 0c                	decw   (%si)
    29c2:	f7 44 02 90 00       	testw  $0x90,0x2(%si)
    29c7:	75 07                	jne    0x29d0
    29c9:	f7 44 02 02 00       	testw  $0x2,0x2(%si)
    29ce:	75 0b                	jne    0x29db
    29d0:	81 4c 02 10 00       	orw    $0x10,0x2(%si)
    29d5:	b8 ff ff             	mov    $0xffff,%ax
    29d8:	e9 84 00             	jmp    0x2a5f
    29db:	81 4c 02 00 01       	orw    $0x100,0x2(%si)
    29e0:	83 7c 06 00          	cmpw   $0x0,0x6(%si)
    29e4:	74 24                	je     0x2a0a
    29e6:	83 3c 00             	cmpw   $0x0,(%si)
    29e9:	74 10                	je     0x29fb
    29eb:	56                   	push   %si
    29ec:	e8 d7 fe             	call   0x28c6
    29ef:	59                   	pop    %cx
    29f0:	0b c0                	or     %ax,%ax
    29f2:	74 05                	je     0x29f9
    29f4:	b8 ff ff             	mov    $0xffff,%ax
    29f7:	eb 66                	jmp    0x2a5f
    29f9:	eb 0a                	jmp    0x2a05
    29fb:	8b 44 06             	mov    0x6(%si),%ax
    29fe:	ba ff ff             	mov    $0xffff,%dx
    2a01:	2b d0                	sub    %ax,%dx
    2a03:	89 14                	mov    %dx,(%si)
    2a05:	e9 7e ff             	jmp    0x2986
    2a08:	eb 55                	jmp    0x2a5f
    2a0a:	80 7e ff 0a          	cmpb   $0xa,-0x1(%bp)
    2a0e:	75 1f                	jne    0x2a2f
    2a10:	f7 44 02 40 00       	testw  $0x40,0x2(%si)
    2a15:	75 18                	jne    0x2a2f
    2a17:	b8 01 00             	mov    $0x1,%ax
    2a1a:	50                   	push   %ax
    2a1b:	b8 38 06             	mov    $0x638,%ax
    2a1e:	50                   	push   %ax
    2a1f:	8a 44 04             	mov    0x4(%si),%al
    2a22:	98                   	cbtw   
    2a23:	50                   	push   %ax
    2a24:	e8 6f fb             	call   0x2596
    2a27:	83 c4 06             	add    $0x6,%sp
    2a2a:	3d 01 00             	cmp    $0x1,%ax
    2a2d:	75 18                	jne    0x2a47
    2a2f:	b8 01 00             	mov    $0x1,%ax
    2a32:	50                   	push   %ax
    2a33:	8d 46 04             	lea    0x4(%bp),%ax
    2a36:	50                   	push   %ax
    2a37:	8a 44 04             	mov    0x4(%si),%al
    2a3a:	98                   	cbtw   
    2a3b:	50                   	push   %ax
    2a3c:	e8 57 fb             	call   0x2596
    2a3f:	83 c4 06             	add    $0x6,%sp
    2a42:	3d 01 00             	cmp    $0x1,%ax
    2a45:	74 11                	je     0x2a58
    2a47:	f7 44 02 00 02       	testw  $0x200,0x2(%si)
    2a4c:	75 0a                	jne    0x2a58
    2a4e:	81 4c 02 10 00       	orw    $0x10,0x2(%si)
    2a53:	b8 ff ff             	mov    $0xffff,%ax
    2a56:	eb 07                	jmp    0x2a5f
    2a58:	8a 46 ff             	mov    -0x1(%bp),%al
    2a5b:	b4 00                	mov    $0x0,%ah
    2a5d:	eb 00                	jmp    0x2a5f
    2a5f:	5e                   	pop    %si
    2a60:	8b e5                	mov    %bp,%sp
    2a62:	5d                   	pop    %bp
    2a63:	c3                   	ret    
    2a64:	55                   	push   %bp
    2a65:	8b ec                	mov    %sp,%bp
    2a67:	56                   	push   %si
    2a68:	8b 76 04             	mov    0x4(%bp),%si
    2a6b:	b8 9c 04             	mov    $0x49c,%ax
    2a6e:	50                   	push   %ax
    2a6f:	56                   	push   %si
    2a70:	e8 03 ff             	call   0x2976
    2a73:	59                   	pop    %cx
    2a74:	59                   	pop    %cx
    2a75:	eb 00                	jmp    0x2a77
    2a77:	5e                   	pop    %si
    2a78:	5d                   	pop    %bp
    2a79:	c3                   	ret    
    2a7a:	55                   	push   %bp
    2a7b:	8b ec                	mov    %sp,%bp
    2a7d:	83 ec 02             	sub    $0x2,%sp
    2a80:	56                   	push   %si
    2a81:	57                   	push   %di
    2a82:	8b 76 04             	mov    0x4(%bp),%si
    2a85:	8b 7e 06             	mov    0x6(%bp),%di
    2a88:	89 7e fe             	mov    %di,-0x2(%bp)
    2a8b:	f7 44 02 08 00       	testw  $0x8,0x2(%si)
    2a90:	74 26                	je     0x2ab8
    2a92:	eb 1a                	jmp    0x2aae
    2a94:	56                   	push   %si
    2a95:	8b 5e 08             	mov    0x8(%bp),%bx
    2a98:	ff 46 08             	incw   0x8(%bp)
    2a9b:	8a 07                	mov    (%bx),%al
    2a9d:	98                   	cbtw   
    2a9e:	50                   	push   %ax
    2a9f:	e8 d4 fe             	call   0x2976
    2aa2:	59                   	pop    %cx
    2aa3:	59                   	pop    %cx
    2aa4:	3d ff ff             	cmp    $0xffff,%ax
    2aa7:	75 05                	jne    0x2aae
    2aa9:	33 c0                	xor    %ax,%ax
    2aab:	e9 87 00             	jmp    0x2b35
    2aae:	8b c7                	mov    %di,%ax
    2ab0:	4f                   	dec    %di
    2ab1:	0b c0                	or     %ax,%ax
    2ab3:	75 df                	jne    0x2a94
    2ab5:	e9 78 00             	jmp    0x2b30
    2ab8:	f7 44 02 40 00       	testw  $0x40,0x2(%si)
    2abd:	74 38                	je     0x2af7
    2abf:	83 7c 06 00          	cmpw   $0x0,0x6(%si)
    2ac3:	74 32                	je     0x2af7
    2ac5:	8b 44 06             	mov    0x6(%si),%ax
    2ac8:	3b c7                	cmp    %di,%ax
    2aca:	73 2b                	jae    0x2af7
    2acc:	83 3c 00             	cmpw   $0x0,(%si)
    2acf:	74 0d                	je     0x2ade
    2ad1:	56                   	push   %si
    2ad2:	e8 f1 fd             	call   0x28c6
    2ad5:	59                   	pop    %cx
    2ad6:	0b c0                	or     %ax,%ax
    2ad8:	74 04                	je     0x2ade
    2ada:	33 c0                	xor    %ax,%ax
    2adc:	eb 57                	jmp    0x2b35
    2ade:	57                   	push   %di
    2adf:	ff 76 08             	pushw  0x8(%bp)
    2ae2:	8a 44 04             	mov    0x4(%si),%al
    2ae5:	98                   	cbtw   
    2ae6:	50                   	push   %ax
    2ae7:	e8 ac fa             	call   0x2596
    2aea:	83 c4 06             	add    $0x6,%sp
    2aed:	3b c7                	cmp    %di,%ax
    2aef:	73 04                	jae    0x2af5
    2af1:	33 c0                	xor    %ax,%ax
    2af3:	eb 40                	jmp    0x2b35
    2af5:	eb 39                	jmp    0x2b30
    2af7:	eb 30                	jmp    0x2b29
    2af9:	ff 04                	incw   (%si)
    2afb:	7d 15                	jge    0x2b12
    2afd:	8b 5e 08             	mov    0x8(%bp),%bx
    2b00:	ff 46 08             	incw   0x8(%bp)
    2b03:	8a 07                	mov    (%bx),%al
    2b05:	ff 44 0a             	incw   0xa(%si)
    2b08:	8b 5c 0a             	mov    0xa(%si),%bx
    2b0b:	88 47 ff             	mov    %al,-0x1(%bx)
    2b0e:	b4 00                	mov    $0x0,%ah
    2b10:	eb 0e                	jmp    0x2b20
    2b12:	56                   	push   %si
    2b13:	8b 5e 08             	mov    0x8(%bp),%bx
    2b16:	ff 46 08             	incw   0x8(%bp)
    2b19:	ff 37                	pushw  (%bx)
    2b1b:	e8 3f fe             	call   0x295d
    2b1e:	59                   	pop    %cx
    2b1f:	59                   	pop    %cx
    2b20:	3d ff ff             	cmp    $0xffff,%ax
    2b23:	75 04                	jne    0x2b29
    2b25:	33 c0                	xor    %ax,%ax
    2b27:	eb 0c                	jmp    0x2b35
    2b29:	8b c7                	mov    %di,%ax
    2b2b:	4f                   	dec    %di
    2b2c:	0b c0                	or     %ax,%ax
    2b2e:	75 c9                	jne    0x2af9
    2b30:	8b 46 fe             	mov    -0x2(%bp),%ax
    2b33:	eb 00                	jmp    0x2b35
    2b35:	5f                   	pop    %di
    2b36:	5e                   	pop    %si
    2b37:	8b e5                	mov    %bp,%sp
    2b39:	5d                   	pop    %bp
    2b3a:	c2 06 00             	ret    $0x6
    2b3d:	55                   	push   %bp
    2b3e:	8b ec                	mov    %sp,%bp
    2b40:	56                   	push   %si
    2b41:	57                   	push   %di
    2b42:	8b 76 04             	mov    0x4(%bp),%si
    2b45:	56                   	push   %si
    2b46:	e8 b4 fc             	call   0x27fd
    2b49:	59                   	pop    %cx
    2b4a:	8b f8                	mov    %ax,%di
    2b4c:	56                   	push   %si
    2b4d:	57                   	push   %di
    2b4e:	b8 9c 04             	mov    $0x49c,%ax
    2b51:	50                   	push   %ax
    2b52:	e8 25 ff             	call   0x2a7a
    2b55:	3b c7                	cmp    %di,%ax
    2b57:	74 05                	je     0x2b5e
    2b59:	b8 ff ff             	mov    $0xffff,%ax
    2b5c:	eb 1c                	jmp    0x2b7a
    2b5e:	b8 9c 04             	mov    $0x49c,%ax
    2b61:	50                   	push   %ax
    2b62:	b8 0a 00             	mov    $0xa,%ax
    2b65:	50                   	push   %ax
    2b66:	e8 0d fe             	call   0x2976
    2b69:	59                   	pop    %cx
    2b6a:	59                   	pop    %cx
    2b6b:	3d 0a 00             	cmp    $0xa,%ax
    2b6e:	74 05                	je     0x2b75
    2b70:	b8 ff ff             	mov    $0xffff,%ax
    2b73:	eb 03                	jmp    0x2b78
    2b75:	b8 0a 00             	mov    $0xa,%ax
    2b78:	eb 00                	jmp    0x2b7a
    2b7a:	5f                   	pop    %di
    2b7b:	5e                   	pop    %si
    2b7c:	5d                   	pop    %bp
    2b7d:	c3                   	ret    
    2b7e:	ff 26 d0 06          	jmp    *0x6d0
    2b82:	55                   	push   %bp
    2b83:	8b ec                	mov    %sp,%bp
    2b85:	8b 56 04             	mov    0x4(%bp),%dx
    2b88:	b9 04 0f             	mov    $0xf04,%cx
    2b8b:	bb 41 06             	mov    $0x641,%bx
    2b8e:	fc                   	cld    
    2b8f:	8a c6                	mov    %dh,%al
    2b91:	d2 e8                	shr    %cl,%al
    2b93:	d7                   	xlat   %ds:(%bx)
    2b94:	aa                   	stos   %al,%es:(%di)
    2b95:	8a c6                	mov    %dh,%al
    2b97:	22 c5                	and    %ch,%al
    2b99:	d7                   	xlat   %ds:(%bx)
    2b9a:	aa                   	stos   %al,%es:(%di)
    2b9b:	8a c2                	mov    %dl,%al
    2b9d:	d2 e8                	shr    %cl,%al
    2b9f:	d7                   	xlat   %ds:(%bx)
    2ba0:	aa                   	stos   %al,%es:(%di)
    2ba1:	8a c2                	mov    %dl,%al
    2ba3:	22 c5                	and    %ch,%al
    2ba5:	d7                   	xlat   %ds:(%bx)
    2ba6:	aa                   	stos   %al,%es:(%di)
    2ba7:	eb 00                	jmp    0x2ba9
    2ba9:	5d                   	pop    %bp
    2baa:	c2 02 00             	ret    $0x2
    2bad:	55                   	push   %bp
    2bae:	8b ec                	mov    %sp,%bp
    2bb0:	81 ec 98 00          	sub    $0x98,%sp
    2bb4:	56                   	push   %si
    2bb5:	57                   	push   %di
    2bb6:	c7 46 a8 00 00       	movw   $0x0,-0x58(%bp)
    2bbb:	c6 46 ab 50          	movb   $0x50,-0x55(%bp)
    2bbf:	c7 46 fe 00 00       	movw   $0x0,-0x2(%bp)
    2bc4:	eb 41                	jmp    0x2c07
    2bc6:	57                   	push   %di
    2bc7:	b9 ff ff             	mov    $0xffff,%cx
    2bca:	32 c0                	xor    %al,%al
    2bcc:	f2 ae                	repnz scas %es:(%di),%al
    2bce:	f7 d1                	not    %cx
    2bd0:	49                   	dec    %cx
    2bd1:	5f                   	pop    %di
    2bd2:	c3                   	ret    
    2bd3:	88 05                	mov    %al,(%di)
    2bd5:	47                   	inc    %di
    2bd6:	fe 4e ab             	decb   -0x55(%bp)
    2bd9:	7e 2b                	jle    0x2c06
    2bdb:	53                   	push   %bx
    2bdc:	51                   	push   %cx
    2bdd:	52                   	push   %dx
    2bde:	06                   	push   %es
    2bdf:	8d 46 ac             	lea    -0x54(%bp),%ax
    2be2:	2b f8                	sub    %ax,%di
    2be4:	8d 46 ac             	lea    -0x54(%bp),%ax
    2be7:	50                   	push   %ax
    2be8:	57                   	push   %di
    2be9:	ff 76 08             	pushw  0x8(%bp)
    2bec:	ff 56 0a             	call   *0xa(%bp)
    2bef:	0b c0                	or     %ax,%ax
    2bf1:	75 05                	jne    0x2bf8
    2bf3:	c7 46 fe 01 00       	movw   $0x1,-0x2(%bp)
    2bf8:	c6 46 ab 50          	movb   $0x50,-0x55(%bp)
    2bfc:	01 7e a8             	add    %di,-0x58(%bp)
    2bff:	8d 7e ac             	lea    -0x54(%bp),%di
    2c02:	07                   	pop    %es
    2c03:	5a                   	pop    %dx
    2c04:	59                   	pop    %cx
    2c05:	5b                   	pop    %bx
    2c06:	c3                   	ret    
    2c07:	06                   	push   %es
    2c08:	fc                   	cld    
    2c09:	8d 7e ac             	lea    -0x54(%bp),%di
    2c0c:	89 be 6a ff          	mov    %di,-0x96(%bp)
    2c10:	8b be 6a ff          	mov    -0x96(%bp),%di
    2c14:	8b 76 06             	mov    0x6(%bp),%si
    2c17:	ac                   	lods   %ds:(%si),%al
    2c18:	0a c0                	or     %al,%al
    2c1a:	74 11                	je     0x2c2d
    2c1c:	3c 25                	cmp    $0x25,%al
    2c1e:	74 10                	je     0x2c30
    2c20:	88 05                	mov    %al,(%di)
    2c22:	47                   	inc    %di
    2c23:	fe 4e ab             	decb   -0x55(%bp)
    2c26:	7f ef                	jg     0x2c17
    2c28:	e8 b0 ff             	call   0x2bdb
    2c2b:	eb ea                	jmp    0x2c17
    2c2d:	e9 7c 04             	jmp    0x30ac
    2c30:	89 b6 76 ff          	mov    %si,-0x8a(%bp)
    2c34:	ac                   	lods   %ds:(%si),%al
    2c35:	3c 25                	cmp    $0x25,%al
    2c37:	74 e7                	je     0x2c20
    2c39:	89 be 6a ff          	mov    %di,-0x96(%bp)
    2c3d:	33 c9                	xor    %cx,%cx
    2c3f:	89 8e 74 ff          	mov    %cx,-0x8c(%bp)
    2c43:	89 8e 68 ff          	mov    %cx,-0x98(%bp)
    2c47:	88 8e 73 ff          	mov    %cl,-0x8d(%bp)
    2c4b:	c7 86 6e ff ff ff    	movw   $0xffff,-0x92(%bp)
    2c51:	c7 86 70 ff ff ff    	movw   $0xffff,-0x90(%bp)
    2c57:	eb 01                	jmp    0x2c5a
    2c59:	ac                   	lods   %ds:(%si),%al
    2c5a:	32 e4                	xor    %ah,%ah
    2c5c:	8b d0                	mov    %ax,%dx
    2c5e:	8b d8                	mov    %ax,%bx
    2c60:	80 eb 20             	sub    $0x20,%bl
    2c63:	80 fb 60             	cmp    $0x60,%bl
    2c66:	73 47                	jae    0x2caf
    2c68:	8a 9f 51 06          	mov    0x651(%bx),%bl
    2c6c:	8b c3                	mov    %bx,%ax
    2c6e:	3d 17 00             	cmp    $0x17,%ax
    2c71:	76 03                	jbe    0x2c76
    2c73:	e9 24 04             	jmp    0x309a
    2c76:	8b d8                	mov    %ax,%bx
    2c78:	d1 e3                	shl    %bx
    2c7a:	2e ff a7 7f 2a       	jmp    *%cs:0x2a7f(%bx)
    2c7f:	ca 2a b2             	lret   $0xb22a
    2c82:	2a 0b                	sub    (%bp,%di),%cl
    2c84:	2b be 2a 30          	sub    0x302a(%bp),%di
    2c88:	2b 3a                	sub    (%bp,%si),%di
    2c8a:	2b 7c 2b             	sub    0x2b(%si),%di
    2c8d:	86 2b                	xchg   %ch,(%bp,%di)
    2c8f:	96                   	xchg   %ax,%si
    2c90:	2b f1                	sub    %cx,%si
    2c92:	2a cb                	sub    %bl,%cl
    2c94:	2b a6 2b aa          	sub    -0x55d5(%bp),%sp
    2c98:	2b ae 2b 50          	sub    0x502b(%bp),%bp
    2c9c:	2c 02                	sub    $0x2,%al
    2c9e:	2d a3 2c             	sub    $0x2ca3,%ax
    2ca1:	c3                   	ret    
    2ca2:	2c 6d                	sub    $0x6d,%al
    2ca4:	2e 9a 2e 9a 2e 9a    	cs lcall $0x9a2e,$0x9a2e
    2caa:	2e dd 2a             	(bad)  %cs:(%bp,%si)
    2cad:	e7 2a                	out    %ax,$0x2a
    2caf:	e9 e8 03             	jmp    0x309a
    2cb2:	80 fd 00             	cmp    $0x0,%ch
    2cb5:	77 f8                	ja     0x2caf
    2cb7:	83 8e 68 ff 01       	orw    $0x1,-0x98(%bp)
    2cbc:	eb 9b                	jmp    0x2c59
    2cbe:	80 fd 00             	cmp    $0x0,%ch
    2cc1:	77 ec                	ja     0x2caf
    2cc3:	83 8e 68 ff 02       	orw    $0x2,-0x98(%bp)
    2cc8:	eb 8f                	jmp    0x2c59
    2cca:	80 fd 00             	cmp    $0x0,%ch
    2ccd:	77 e0                	ja     0x2caf
    2ccf:	80 be 73 ff 2b       	cmpb   $0x2b,-0x8d(%bp)
    2cd4:	74 04                	je     0x2cda
    2cd6:	88 96 73 ff          	mov    %dl,-0x8d(%bp)
    2cda:	e9 7c ff             	jmp    0x2c59
    2cdd:	83 a6 68 ff df       	andw   $0xffdf,-0x98(%bp)
    2ce2:	b5 05                	mov    $0x5,%ch
    2ce4:	e9 72 ff             	jmp    0x2c59
    2ce7:	83 8e 68 ff 20       	orw    $0x20,-0x98(%bp)
    2cec:	b5 05                	mov    $0x5,%ch
    2cee:	e9 68 ff             	jmp    0x2c59
    2cf1:	80 fd 00             	cmp    $0x0,%ch
    2cf4:	77 44                	ja     0x2d3a
    2cf6:	f7 86 68 ff 02 00    	testw  $0x2,-0x98(%bp)
    2cfc:	75 21                	jne    0x2d1f
    2cfe:	83 8e 68 ff 08       	orw    $0x8,-0x98(%bp)
    2d03:	b5 01                	mov    $0x1,%ch
    2d05:	e9 51 ff             	jmp    0x2c59
    2d08:	e9 8f 03             	jmp    0x309a
    2d0b:	8b 7e 04             	mov    0x4(%bp),%di
    2d0e:	8b 05                	mov    (%di),%ax
    2d10:	83 46 04 02          	addw   $0x2,0x4(%bp)
    2d14:	80 fd 02             	cmp    $0x2,%ch
    2d17:	73 09                	jae    0x2d22
    2d19:	89 86 6e ff          	mov    %ax,-0x92(%bp)
    2d1d:	b5 03                	mov    $0x3,%ch
    2d1f:	e9 37 ff             	jmp    0x2c59
    2d22:	80 fd 04             	cmp    $0x4,%ch
    2d25:	75 e1                	jne    0x2d08
    2d27:	89 86 70 ff          	mov    %ax,-0x90(%bp)
    2d2b:	fe c5                	inc    %ch
    2d2d:	e9 29 ff             	jmp    0x2c59
    2d30:	80 fd 04             	cmp    $0x4,%ch
    2d33:	73 d3                	jae    0x2d08
    2d35:	b5 04                	mov    $0x4,%ch
    2d37:	e9 1f ff             	jmp    0x2c59
    2d3a:	92                   	xchg   %ax,%dx
    2d3b:	2c 30                	sub    $0x30,%al
    2d3d:	98                   	cbtw   
    2d3e:	80 fd 02             	cmp    $0x2,%ch
    2d41:	77 1b                	ja     0x2d5e
    2d43:	b5 02                	mov    $0x2,%ch
    2d45:	87 86 6e ff          	xchg   %ax,-0x92(%bp)
    2d49:	0b c0                	or     %ax,%ax
    2d4b:	7c d2                	jl     0x2d1f
    2d4d:	d1 e0                	shl    %ax
    2d4f:	8b d0                	mov    %ax,%dx
    2d51:	d1 e0                	shl    %ax
    2d53:	d1 e0                	shl    %ax
    2d55:	03 c2                	add    %dx,%ax
    2d57:	01 86 6e ff          	add    %ax,-0x92(%bp)
    2d5b:	e9 fb fe             	jmp    0x2c59
    2d5e:	80 fd 04             	cmp    $0x4,%ch
    2d61:	75 a5                	jne    0x2d08
    2d63:	87 86 70 ff          	xchg   %ax,-0x90(%bp)
    2d67:	0b c0                	or     %ax,%ax
    2d69:	7c b4                	jl     0x2d1f
    2d6b:	d1 e0                	shl    %ax
    2d6d:	8b d0                	mov    %ax,%dx
    2d6f:	d1 e0                	shl    %ax
    2d71:	d1 e0                	shl    %ax
    2d73:	03 c2                	add    %dx,%ax
    2d75:	01 86 70 ff          	add    %ax,-0x90(%bp)
    2d79:	e9 dd fe             	jmp    0x2c59
    2d7c:	83 8e 68 ff 10       	orw    $0x10,-0x98(%bp)
    2d81:	b5 05                	mov    $0x5,%ch
    2d83:	e9 d3 fe             	jmp    0x2c59
    2d86:	81 8e 68 ff 00 01    	orw    $0x100,-0x98(%bp)
    2d8c:	83 a6 68 ff ef       	andw   $0xffef,-0x98(%bp)
    2d91:	b5 05                	mov    $0x5,%ch
    2d93:	e9 c3 fe             	jmp    0x2c59
    2d96:	83 a6 68 ff ef       	andw   $0xffef,-0x98(%bp)
    2d9b:	81 8e 68 ff 80 00    	orw    $0x80,-0x98(%bp)
    2da1:	b5 05                	mov    $0x5,%ch
    2da3:	e9 b3 fe             	jmp    0x2c59
    2da6:	b7 08                	mov    $0x8,%bh
    2da8:	eb 0a                	jmp    0x2db4
    2daa:	b7 0a                	mov    $0xa,%bh
    2dac:	eb 0b                	jmp    0x2db9
    2dae:	b7 10                	mov    $0x10,%bh
    2db0:	b3 e9                	mov    $0xe9,%bl
    2db2:	02 da                	add    %dl,%bl
    2db4:	c6 86 73 ff 00       	movb   $0x0,-0x8d(%bp)
    2db9:	c6 86 6d ff 00       	movb   $0x0,-0x93(%bp)
    2dbe:	88 96 6c ff          	mov    %dl,-0x94(%bp)
    2dc2:	8b 7e 04             	mov    0x4(%bp),%di
    2dc5:	8b 05                	mov    (%di),%ax
    2dc7:	33 d2                	xor    %dx,%dx
    2dc9:	eb 11                	jmp    0x2ddc
    2dcb:	b7 0a                	mov    $0xa,%bh
    2dcd:	c6 86 6d ff 01       	movb   $0x1,-0x93(%bp)
    2dd2:	88 96 6c ff          	mov    %dl,-0x94(%bp)
    2dd6:	8b 7e 04             	mov    0x4(%bp),%di
    2dd9:	8b 05                	mov    (%di),%ax
    2ddb:	99                   	cwtd   
    2ddc:	47                   	inc    %di
    2ddd:	47                   	inc    %di
    2dde:	89 76 06             	mov    %si,0x6(%bp)
    2de1:	f7 86 68 ff 10 00    	testw  $0x10,-0x98(%bp)
    2de7:	74 04                	je     0x2ded
    2de9:	8b 15                	mov    (%di),%dx
    2deb:	47                   	inc    %di
    2dec:	47                   	inc    %di
    2ded:	89 7e 04             	mov    %di,0x4(%bp)
    2df0:	8d be 79 ff          	lea    -0x87(%bp),%di
    2df4:	0b c0                	or     %ax,%ax
    2df6:	75 33                	jne    0x2e2b
    2df8:	0b d2                	or     %dx,%dx
    2dfa:	75 2f                	jne    0x2e2b
    2dfc:	83 be 70 ff 00       	cmpw   $0x0,-0x90(%bp)
    2e01:	75 2d                	jne    0x2e30
    2e03:	8b be 6a ff          	mov    -0x96(%bp),%di
    2e07:	8b 8e 6e ff          	mov    -0x92(%bp),%cx
    2e0b:	e3 1b                	jcxz   0x2e28
    2e0d:	83 f9 ff             	cmp    $0xffff,%cx
    2e10:	74 16                	je     0x2e28
    2e12:	8b 86 68 ff          	mov    -0x98(%bp),%ax
    2e16:	25 08 00             	and    $0x8,%ax
    2e19:	74 04                	je     0x2e1f
    2e1b:	b2 30                	mov    $0x30,%dl
    2e1d:	eb 02                	jmp    0x2e21
    2e1f:	b2 20                	mov    $0x20,%dl
    2e21:	8a c2                	mov    %dl,%al
    2e23:	e8 ad fd             	call   0x2bd3
    2e26:	e2 f9                	loop   0x2e21
    2e28:	e9 e9 fd             	jmp    0x2c14
    2e2b:	83 8e 68 ff 04       	orw    $0x4,-0x98(%bp)
    2e30:	52                   	push   %dx
    2e31:	50                   	push   %ax
    2e32:	57                   	push   %di
    2e33:	8a c7                	mov    %bh,%al
    2e35:	98                   	cbtw   
    2e36:	50                   	push   %ax
    2e37:	8a 86 6d ff          	mov    -0x93(%bp),%al
    2e3b:	50                   	push   %ax
    2e3c:	53                   	push   %bx
    2e3d:	e8 00 f8             	call   0x2640
    2e40:	16                   	push   %ss
    2e41:	07                   	pop    %es
    2e42:	8b 96 70 ff          	mov    -0x90(%bp),%dx
    2e46:	0b d2                	or     %dx,%dx
    2e48:	7f 03                	jg     0x2e4d
    2e4a:	e9 14 01             	jmp    0x2f61
    2e4d:	e9 21 01             	jmp    0x2f71
    2e50:	88 96 6c ff          	mov    %dl,-0x94(%bp)
    2e54:	89 76 06             	mov    %si,0x6(%bp)
    2e57:	8d be 78 ff          	lea    -0x88(%bp),%di
    2e5b:	8b 5e 04             	mov    0x4(%bp),%bx
    2e5e:	ff 37                	pushw  (%bx)
    2e60:	43                   	inc    %bx
    2e61:	43                   	inc    %bx
    2e62:	89 5e 04             	mov    %bx,0x4(%bp)
    2e65:	f7 86 68 ff 20 00    	testw  $0x20,-0x98(%bp)
    2e6b:	74 0f                	je     0x2e7c
    2e6d:	ff 37                	pushw  (%bx)
    2e6f:	43                   	inc    %bx
    2e70:	43                   	inc    %bx
    2e71:	89 5e 04             	mov    %bx,0x4(%bp)
    2e74:	16                   	push   %ss
    2e75:	07                   	pop    %es
    2e76:	e8 09 fd             	call   0x2b82
    2e79:	b0 3a                	mov    $0x3a,%al
    2e7b:	aa                   	stos   %al,%es:(%di)
    2e7c:	16                   	push   %ss
    2e7d:	07                   	pop    %es
    2e7e:	e8 01 fd             	call   0x2b82
    2e81:	c6 05 00             	movb   $0x0,(%di)
    2e84:	c6 86 6d ff 00       	movb   $0x0,-0x93(%bp)
    2e89:	83 a6 68 ff fb       	andw   $0xfffb,-0x98(%bp)
    2e8e:	8d 8e 78 ff          	lea    -0x88(%bp),%cx
    2e92:	2b f9                	sub    %cx,%di
    2e94:	87 cf                	xchg   %cx,%di
    2e96:	8b 96 70 ff          	mov    -0x90(%bp),%dx
    2e9a:	3b d1                	cmp    %cx,%dx
    2e9c:	7f 02                	jg     0x2ea0
    2e9e:	8b d1                	mov    %cx,%dx
    2ea0:	e9 be 00             	jmp    0x2f61
    2ea3:	89 76 06             	mov    %si,0x6(%bp)
    2ea6:	88 96 6c ff          	mov    %dl,-0x94(%bp)
    2eaa:	8b 7e 04             	mov    0x4(%bp),%di
    2ead:	8b 05                	mov    (%di),%ax
    2eaf:	83 46 04 02          	addw   $0x2,0x4(%bp)
    2eb3:	16                   	push   %ss
    2eb4:	07                   	pop    %es
    2eb5:	8d be 79 ff          	lea    -0x87(%bp),%di
    2eb9:	32 e4                	xor    %ah,%ah
    2ebb:	89 05                	mov    %ax,(%di)
    2ebd:	b9 01 00             	mov    $0x1,%cx
    2ec0:	e9 df 00             	jmp    0x2fa2
    2ec3:	89 76 06             	mov    %si,0x6(%bp)
    2ec6:	88 96 6c ff          	mov    %dl,-0x94(%bp)
    2eca:	8b 7e 04             	mov    0x4(%bp),%di
    2ecd:	f7 86 68 ff 20 00    	testw  $0x20,-0x98(%bp)
    2ed3:	75 0c                	jne    0x2ee1
    2ed5:	8b 3d                	mov    (%di),%di
    2ed7:	83 46 04 02          	addw   $0x2,0x4(%bp)
    2edb:	1e                   	push   %ds
    2edc:	07                   	pop    %es
    2edd:	0b ff                	or     %di,%di
    2edf:	eb 0a                	jmp    0x2eeb
    2ee1:	c4 3d                	les    (%di),%di
    2ee3:	83 46 04 04          	addw   $0x4,0x4(%bp)
    2ee7:	8c c0                	mov    %es,%ax
    2ee9:	0b c7                	or     %di,%ax
    2eeb:	75 05                	jne    0x2ef2
    2eed:	1e                   	push   %ds
    2eee:	07                   	pop    %es
    2eef:	bf 3a 06             	mov    $0x63a,%di
    2ef2:	e8 d1 fc             	call   0x2bc6
    2ef5:	3b 8e 70 ff          	cmp    -0x90(%bp),%cx
    2ef9:	76 04                	jbe    0x2eff
    2efb:	8b 8e 70 ff          	mov    -0x90(%bp),%cx
    2eff:	e9 a0 00             	jmp    0x2fa2
    2f02:	89 76 06             	mov    %si,0x6(%bp)
    2f05:	88 96 6c ff          	mov    %dl,-0x94(%bp)
    2f09:	8b 7e 04             	mov    0x4(%bp),%di
    2f0c:	8b 8e 70 ff          	mov    -0x90(%bp),%cx
    2f10:	0b c9                	or     %cx,%cx
    2f12:	7d 03                	jge    0x2f17
    2f14:	b9 06 00             	mov    $0x6,%cx
    2f17:	57                   	push   %di
    2f18:	51                   	push   %cx
    2f19:	8d 9e 79 ff          	lea    -0x87(%bp),%bx
    2f1d:	53                   	push   %bx
    2f1e:	52                   	push   %dx
    2f1f:	b8 01 00             	mov    $0x1,%ax
    2f22:	23 86 68 ff          	and    -0x98(%bp),%ax
    2f26:	50                   	push   %ax
    2f27:	8b 86 68 ff          	mov    -0x98(%bp),%ax
    2f2b:	a9 80 00             	test   $0x80,%ax
    2f2e:	74 0a                	je     0x2f3a
    2f30:	b8 02 00             	mov    $0x2,%ax
    2f33:	c7 46 fc 04 00       	movw   $0x4,-0x4(%bp)
    2f38:	eb 17                	jmp    0x2f51
    2f3a:	a9 00 01             	test   $0x100,%ax
    2f3d:	74 0a                	je     0x2f49
    2f3f:	b8 08 00             	mov    $0x8,%ax
    2f42:	c7 46 fc 0a 00       	movw   $0xa,-0x4(%bp)
    2f47:	eb 08                	jmp    0x2f51
    2f49:	c7 46 fc 08 00       	movw   $0x8,-0x4(%bp)
    2f4e:	b8 06 00             	mov    $0x6,%ax
    2f51:	50                   	push   %ax
    2f52:	e8 29 fc             	call   0x2b7e
    2f55:	8b 46 fc             	mov    -0x4(%bp),%ax
    2f58:	01 46 04             	add    %ax,0x4(%bp)
    2f5b:	16                   	push   %ss
    2f5c:	07                   	pop    %es
    2f5d:	8d be 79 ff          	lea    -0x87(%bp),%di
    2f61:	f7 86 68 ff 08 00    	testw  $0x8,-0x98(%bp)
    2f67:	74 1a                	je     0x2f83
    2f69:	8b 96 6e ff          	mov    -0x92(%bp),%dx
    2f6d:	0b d2                	or     %dx,%dx
    2f6f:	7e 12                	jle    0x2f83
    2f71:	e8 52 fc             	call   0x2bc6
    2f74:	26 80 3d 2d          	cmpb   $0x2d,%es:(%di)
    2f78:	75 01                	jne    0x2f7b
    2f7a:	49                   	dec    %cx
    2f7b:	2b d1                	sub    %cx,%dx
    2f7d:	7e 04                	jle    0x2f83
    2f7f:	89 96 74 ff          	mov    %dx,-0x8c(%bp)
    2f83:	8a 86 73 ff          	mov    -0x8d(%bp),%al
    2f87:	0a c0                	or     %al,%al
    2f89:	74 14                	je     0x2f9f
    2f8b:	26 80 3d 2d          	cmpb   $0x2d,%es:(%di)
    2f8f:	74 0e                	je     0x2f9f
    2f91:	83 ae 74 ff 01       	subw   $0x1,-0x8c(%bp)
    2f96:	83 96 74 ff 00       	adcw   $0x0,-0x8c(%bp)
    2f9b:	4f                   	dec    %di
    2f9c:	26 88 05             	mov    %al,%es:(%di)
    2f9f:	e8 24 fc             	call   0x2bc6
    2fa2:	8b f7                	mov    %di,%si
    2fa4:	8b be 6a ff          	mov    -0x96(%bp),%di
    2fa8:	8b 9e 6e ff          	mov    -0x92(%bp),%bx
    2fac:	b8 05 00             	mov    $0x5,%ax
    2faf:	23 86 68 ff          	and    -0x98(%bp),%ax
    2fb3:	3d 05 00             	cmp    $0x5,%ax
    2fb6:	75 16                	jne    0x2fce
    2fb8:	8a a6 6c ff          	mov    -0x94(%bp),%ah
    2fbc:	80 fc 6f             	cmp    $0x6f,%ah
    2fbf:	75 10                	jne    0x2fd1
    2fc1:	83 be 74 ff 00       	cmpw   $0x0,-0x8c(%bp)
    2fc6:	7f 06                	jg     0x2fce
    2fc8:	c7 86 74 ff 01 00    	movw   $0x1,-0x8c(%bp)
    2fce:	eb 1f                	jmp    0x2fef
    2fd0:	90                   	nop
    2fd1:	80 fc 78             	cmp    $0x78,%ah
    2fd4:	74 05                	je     0x2fdb
    2fd6:	80 fc 58             	cmp    $0x58,%ah
    2fd9:	75 14                	jne    0x2fef
    2fdb:	83 8e 68 ff 40       	orw    $0x40,-0x98(%bp)
    2fe0:	4b                   	dec    %bx
    2fe1:	4b                   	dec    %bx
    2fe2:	83 ae 74 ff 02       	subw   $0x2,-0x8c(%bp)
    2fe7:	7d 06                	jge    0x2fef
    2fe9:	c7 86 74 ff 00 00    	movw   $0x0,-0x8c(%bp)
    2fef:	03 8e 74 ff          	add    -0x8c(%bp),%cx
    2ff3:	f7 86 68 ff 02 00    	testw  $0x2,-0x98(%bp)
    2ff9:	75 0c                	jne    0x3007
    2ffb:	eb 06                	jmp    0x3003
    2ffd:	b0 20                	mov    $0x20,%al
    2fff:	e8 d1 fb             	call   0x2bd3
    3002:	4b                   	dec    %bx
    3003:	3b d9                	cmp    %cx,%bx
    3005:	7f f6                	jg     0x2ffd
    3007:	f7 86 68 ff 40 00    	testw  $0x40,-0x98(%bp)
    300d:	74 0c                	je     0x301b
    300f:	b0 30                	mov    $0x30,%al
    3011:	e8 bf fb             	call   0x2bd3
    3014:	8a 86 6c ff          	mov    -0x94(%bp),%al
    3018:	e8 b8 fb             	call   0x2bd3
    301b:	8b 96 74 ff          	mov    -0x8c(%bp),%dx
    301f:	0b d2                	or     %dx,%dx
    3021:	7e 27                	jle    0x304a
    3023:	2b ca                	sub    %dx,%cx
    3025:	2b da                	sub    %dx,%bx
    3027:	26 8a 04             	mov    %es:(%si),%al
    302a:	3c 2d                	cmp    $0x2d,%al
    302c:	74 08                	je     0x3036
    302e:	3c 20                	cmp    $0x20,%al
    3030:	74 04                	je     0x3036
    3032:	3c 2b                	cmp    $0x2b,%al
    3034:	75 07                	jne    0x303d
    3036:	26 ac                	lods   %es:(%si),%al
    3038:	e8 98 fb             	call   0x2bd3
    303b:	49                   	dec    %cx
    303c:	4b                   	dec    %bx
    303d:	87 ca                	xchg   %cx,%dx
    303f:	e3 07                	jcxz   0x3048
    3041:	b0 30                	mov    $0x30,%al
    3043:	e8 8d fb             	call   0x2bd3
    3046:	e2 f9                	loop   0x3041
    3048:	87 ca                	xchg   %cx,%dx
    304a:	e3 11                	jcxz   0x305d
    304c:	2b d9                	sub    %cx,%bx
    304e:	26 ac                	lods   %es:(%si),%al
    3050:	88 05                	mov    %al,(%di)
    3052:	47                   	inc    %di
    3053:	fe 4e ab             	decb   -0x55(%bp)
    3056:	7f 03                	jg     0x305b
    3058:	e8 80 fb             	call   0x2bdb
    305b:	e2 f1                	loop   0x304e
    305d:	0b db                	or     %bx,%bx
    305f:	7e 09                	jle    0x306a
    3061:	8b cb                	mov    %bx,%cx
    3063:	b0 20                	mov    $0x20,%al
    3065:	e8 6b fb             	call   0x2bd3
    3068:	e2 f9                	loop   0x3063
    306a:	e9 a7 fb             	jmp    0x2c14
    306d:	89 76 06             	mov    %si,0x6(%bp)
    3070:	8b 7e 04             	mov    0x4(%bp),%di
    3073:	f7 86 68 ff 20 00    	testw  $0x20,-0x98(%bp)
    3079:	75 0a                	jne    0x3085
    307b:	8b 3d                	mov    (%di),%di
    307d:	83 46 04 02          	addw   $0x2,0x4(%bp)
    3081:	1e                   	push   %ds
    3082:	07                   	pop    %es
    3083:	eb 06                	jmp    0x308b
    3085:	c4 3d                	les    (%di),%di
    3087:	83 46 04 04          	addw   $0x4,0x4(%bp)
    308b:	b8 50 00             	mov    $0x50,%ax
    308e:	2a 46 ab             	sub    -0x55(%bp),%al
    3091:	03 46 a8             	add    -0x58(%bp),%ax
    3094:	26 89 05             	mov    %ax,%es:(%di)
    3097:	e9 76 fb             	jmp    0x2c10
    309a:	8b b6 76 ff          	mov    -0x8a(%bp),%si
    309e:	8b be 6a ff          	mov    -0x96(%bp),%di
    30a2:	b0 25                	mov    $0x25,%al
    30a4:	e8 2c fb             	call   0x2bd3
    30a7:	ac                   	lods   %ds:(%si),%al
    30a8:	0a c0                	or     %al,%al
    30aa:	75 f8                	jne    0x30a4
    30ac:	80 7e ab 50          	cmpb   $0x50,-0x55(%bp)
    30b0:	7d 03                	jge    0x30b5
    30b2:	e8 26 fb             	call   0x2bdb
    30b5:	07                   	pop    %es
    30b6:	83 7e fe 00          	cmpw   $0x0,-0x2(%bp)
    30ba:	74 07                	je     0x30c3
    30bc:	b8 ff ff             	mov    $0xffff,%ax
    30bf:	eb 07                	jmp    0x30c8
    30c1:	eb 05                	jmp    0x30c8
    30c3:	8b 46 a8             	mov    -0x58(%bp),%ax
    30c6:	eb 00                	jmp    0x30c8
    30c8:	5f                   	pop    %di
    30c9:	5e                   	pop    %si
    30ca:	8b e5                	mov    %bp,%sp
    30cc:	5d                   	pop    %bp
    30cd:	c2 08 00             	ret    $0x8
    30d0:	55                   	push   %bp
    30d1:	8b ec                	mov    %sp,%bp
    30d3:	56                   	push   %si
    30d4:	57                   	push   %di
    30d5:	8b 76 04             	mov    0x4(%bp),%si
    30d8:	83 3e 1a 07 00       	cmpw   $0x0,0x71a
    30dd:	74 1c                	je     0x30fb
    30df:	8b 1e 1a 07          	mov    0x71a,%bx
    30e3:	8b 7f 06             	mov    0x6(%bx),%di
    30e6:	8b 1e 1a 07          	mov    0x71a,%bx
    30ea:	89 77 06             	mov    %si,0x6(%bx)
    30ed:	89 75 04             	mov    %si,0x4(%di)
    30f0:	89 7c 06             	mov    %di,0x6(%si)
    30f3:	a1 1a 07             	mov    0x71a,%ax
    30f6:	89 44 04             	mov    %ax,0x4(%si)
    30f9:	eb 0a                	jmp    0x3105
    30fb:	89 36 1a 07          	mov    %si,0x71a
    30ff:	89 74 04             	mov    %si,0x4(%si)
    3102:	89 74 06             	mov    %si,0x6(%si)
    3105:	5f                   	pop    %di
    3106:	5e                   	pop    %si
    3107:	5d                   	pop    %bp
    3108:	c3                   	ret    
    3109:	55                   	push   %bp
    310a:	8b ec                	mov    %sp,%bp
    310c:	83 ec 02             	sub    $0x2,%sp
    310f:	56                   	push   %si
    3110:	57                   	push   %di
    3111:	8b 76 06             	mov    0x6(%bp),%si
    3114:	8b 7e 04             	mov    0x4(%bp),%di
    3117:	8b 04                	mov    (%si),%ax
    3119:	01 05                	add    %ax,(%di)
    311b:	a1 18 07             	mov    0x718,%ax
    311e:	3b c6                	cmp    %si,%ax
    3120:	75 06                	jne    0x3128
    3122:	89 3e 18 07          	mov    %di,0x718
    3126:	eb 0d                	jmp    0x3135
    3128:	8b 04                	mov    (%si),%ax
    312a:	03 c6                	add    %si,%ax
    312c:	89 46 fe             	mov    %ax,-0x2(%bp)
    312f:	8b 5e fe             	mov    -0x2(%bp),%bx
    3132:	89 7f 02             	mov    %di,0x2(%bx)
    3135:	56                   	push   %si
    3136:	e8 11 e8             	call   0x194a
    3139:	59                   	pop    %cx
    313a:	5f                   	pop    %di
    313b:	5e                   	pop    %si
    313c:	8b e5                	mov    %bp,%sp
    313e:	5d                   	pop    %bp
    313f:	c3                   	ret    
    3140:	56                   	push   %si
    3141:	a1 1c 07             	mov    0x71c,%ax
    3144:	3b 06 18 07          	cmp    0x718,%ax
    3148:	75 12                	jne    0x315c
    314a:	ff 36 1c 07          	pushw  0x71c
    314e:	e8 a3 e9             	call   0x1af4
    3151:	59                   	pop    %cx
    3152:	33 c0                	xor    %ax,%ax
    3154:	a3 18 07             	mov    %ax,0x718
    3157:	a3 1c 07             	mov    %ax,0x71c
    315a:	eb 3b                	jmp    0x3197
    315c:	8b 1e 18 07          	mov    0x718,%bx
    3160:	8b 77 02             	mov    0x2(%bx),%si
    3163:	f7 04 01 00          	testw  $0x1,(%si)
    3167:	75 22                	jne    0x318b
    3169:	56                   	push   %si
    316a:	e8 dd e7             	call   0x194a
    316d:	59                   	pop    %cx
    316e:	3b 36 1c 07          	cmp    0x71c,%si
    3172:	75 0a                	jne    0x317e
    3174:	33 c0                	xor    %ax,%ax
    3176:	a3 18 07             	mov    %ax,0x718
    3179:	a3 1c 07             	mov    %ax,0x71c
    317c:	eb 06                	jmp    0x3184
    317e:	8b 44 02             	mov    0x2(%si),%ax
    3181:	a3 18 07             	mov    %ax,0x718
    3184:	56                   	push   %si
    3185:	e8 6c e9             	call   0x1af4
    3188:	59                   	pop    %cx
    3189:	eb 0c                	jmp    0x3197
    318b:	ff 36 18 07          	pushw  0x718
    318f:	e8 62 e9             	call   0x1af4
    3192:	59                   	pop    %cx
    3193:	89 36 18 07          	mov    %si,0x718
    3197:	5e                   	pop    %si
    3198:	c3                   	ret    
    3199:	55                   	push   %bp
    319a:	8b ec                	mov    %sp,%bp
    319c:	83 ec 02             	sub    $0x2,%sp
    319f:	56                   	push   %si
    31a0:	57                   	push   %di
    31a1:	8b 76 04             	mov    0x4(%bp),%si
    31a4:	ff 0c                	decw   (%si)
    31a6:	8b 04                	mov    (%si),%ax
    31a8:	03 c6                	add    %si,%ax
    31aa:	89 46 fe             	mov    %ax,-0x2(%bp)
    31ad:	8b 7c 02             	mov    0x2(%si),%di
    31b0:	f7 05 01 00          	testw  $0x1,(%di)
    31b4:	75 14                	jne    0x31ca
    31b6:	3b 36 1c 07          	cmp    0x71c,%si
    31ba:	74 0e                	je     0x31ca
    31bc:	8b 04                	mov    (%si),%ax
    31be:	01 05                	add    %ax,(%di)
    31c0:	8b 5e fe             	mov    -0x2(%bp),%bx
    31c3:	89 7f 02             	mov    %di,0x2(%bx)
    31c6:	8b f7                	mov    %di,%si
    31c8:	eb 05                	jmp    0x31cf
    31ca:	56                   	push   %si
    31cb:	e8 02 ff             	call   0x30d0
    31ce:	59                   	pop    %cx
    31cf:	8b 5e fe             	mov    -0x2(%bp),%bx
    31d2:	f7 07 01 00          	testw  $0x1,(%bx)
    31d6:	75 09                	jne    0x31e1
    31d8:	ff 76 fe             	pushw  -0x2(%bp)
    31db:	56                   	push   %si
    31dc:	e8 2a ff             	call   0x3109
    31df:	59                   	pop    %cx
    31e0:	59                   	pop    %cx
    31e1:	5f                   	pop    %di
    31e2:	5e                   	pop    %si
    31e3:	8b e5                	mov    %bp,%sp
    31e5:	5d                   	pop    %bp
    31e6:	c3                   	ret    
    31e7:	55                   	push   %bp
    31e8:	8b ec                	mov    %sp,%bp
    31ea:	56                   	push   %si
    31eb:	8b 76 04             	mov    0x4(%bp),%si
    31ee:	0b f6                	or     %si,%si
    31f0:	75 02                	jne    0x31f4
    31f2:	eb 17                	jmp    0x320b
    31f4:	8b c6                	mov    %si,%ax
    31f6:	05 fc ff             	add    $0xfffc,%ax
    31f9:	8b f0                	mov    %ax,%si
    31fb:	3b 36 18 07          	cmp    0x718,%si
    31ff:	75 05                	jne    0x3206
    3201:	e8 3c ff             	call   0x3140
    3204:	eb 05                	jmp    0x320b
    3206:	56                   	push   %si
    3207:	e8 8f ff             	call   0x3199
    320a:	59                   	pop    %cx
    320b:	5e                   	pop    %si
    320c:	5d                   	pop    %bp
    320d:	c3                   	ret    
    320e:	55                   	push   %bp
    320f:	8b ec                	mov    %sp,%bp
    3211:	eb 17                	jmp    0x322a
    3213:	c4 5e 06             	les    0x6(%bp),%bx
    3216:	ff 46 06             	incw   0x6(%bp)
    3219:	26 8a 07             	mov    %es:(%bx),%al
    321c:	8b 5e 04             	mov    0x4(%bp),%bx
    321f:	ff 46 04             	incw   0x4(%bp)
    3222:	3a 07                	cmp    (%bx),%al
    3224:	74 04                	je     0x322a
    3226:	33 c0                	xor    %ax,%ax
    3228:	eb 0d                	jmp    0x3237
    322a:	8b 5e 04             	mov    0x4(%bp),%bx
    322d:	80 3f 00             	cmpb   $0x0,(%bx)
    3230:	75 e1                	jne    0x3213
    3232:	b8 01 00             	mov    $0x1,%ax
    3235:	eb 00                	jmp    0x3237
    3237:	5d                   	pop    %bp
    3238:	c2 06 00             	ret    $0x6
    323b:	b8 30 11             	mov    $0x1130,%ax
    323e:	b7 00                	mov    $0x0,%bh
    3240:	b2 ff                	mov    $0xff,%dl
    3242:	e8 09 00             	call   0x324e
    3245:	8a c2                	mov    %dl,%al
    3247:	fe c0                	inc    %al
    3249:	b4 00                	mov    $0x0,%ah
    324b:	eb 00                	jmp    0x324d
    324d:	c3                   	ret    
    324e:	56                   	push   %si
    324f:	57                   	push   %di
    3250:	89 2e 2e 07          	mov    %bp,0x72e
    3254:	cd 10                	int    $0x10
    3256:	8b 2e 2e 07          	mov    0x72e,%bp
    325a:	5f                   	pop    %di
    325b:	5e                   	pop    %si
    325c:	c3                   	ret    
    325d:	b4 0f                	mov    $0xf,%ah
    325f:	e8 ec ff             	call   0x324e
    3262:	50                   	push   %ax
    3263:	e8 14 00             	call   0x327a
    3266:	59                   	pop    %cx
    3267:	b4 08                	mov    $0x8,%ah
    3269:	b7 00                	mov    $0x0,%bh
    326b:	e8 e0 ff             	call   0x324e
    326e:	80 e4 7f             	and    $0x7f,%ah
    3271:	88 26 b7 06          	mov    %ah,0x6b7
    3275:	88 26 b6 06          	mov    %ah,0x6b6
    3279:	c3                   	ret    
    327a:	55                   	push   %bp
    327b:	8b ec                	mov    %sp,%bp
    327d:	8a 46 04             	mov    0x4(%bp),%al
    3280:	3c 03                	cmp    $0x3,%al
    3282:	76 06                	jbe    0x328a
    3284:	3c 07                	cmp    $0x7,%al
    3286:	74 02                	je     0x328a
    3288:	b0 03                	mov    $0x3,%al
    328a:	a2 b8 06             	mov    %al,0x6b8
    328d:	b4 0f                	mov    $0xf,%ah
    328f:	e8 bc ff             	call   0x324e
    3292:	3a 06 b8 06          	cmp    0x6b8,%al
    3296:	74 10                	je     0x32a8
    3298:	a0 b8 06             	mov    0x6b8,%al
    329b:	b4 00                	mov    $0x0,%ah
    329d:	e8 ae ff             	call   0x324e
    32a0:	b4 0f                	mov    $0xf,%ah
    32a2:	e8 a9 ff             	call   0x324e
    32a5:	a2 b8 06             	mov    %al,0x6b8
    32a8:	88 26 ba 06          	mov    %ah,0x6ba
    32ac:	80 3e b8 06 03       	cmpb   $0x3,0x6b8
    32b1:	76 0c                	jbe    0x32bf
    32b3:	80 3e b8 06 07       	cmpb   $0x7,0x6b8
    32b8:	74 05                	je     0x32bf
    32ba:	b8 01 00             	mov    $0x1,%ax
    32bd:	eb 02                	jmp    0x32c1
    32bf:	33 c0                	xor    %ax,%ax
    32c1:	a2 bb 06             	mov    %al,0x6bb
    32c4:	c6 06 b9 06 19       	movb   $0x19,0x6b9
    32c9:	80 3e b8 06 07       	cmpb   $0x7,0x6b8
    32ce:	74 1f                	je     0x32ef
    32d0:	ba 00 f0             	mov    $0xf000,%dx
    32d3:	b8 ea ff             	mov    $0xffea,%ax
    32d6:	52                   	push   %dx
    32d7:	50                   	push   %ax
    32d8:	b8 c3 06             	mov    $0x6c3,%ax
    32db:	50                   	push   %ax
    32dc:	e8 2f ff             	call   0x320e
    32df:	0b c0                	or     %ax,%ax
    32e1:	75 0c                	jne    0x32ef
    32e3:	e8 55 ff             	call   0x323b
    32e6:	0b c0                	or     %ax,%ax
    32e8:	75 05                	jne    0x32ef
    32ea:	b8 01 00             	mov    $0x1,%ax
    32ed:	eb 02                	jmp    0x32f1
    32ef:	33 c0                	xor    %ax,%ax
    32f1:	a2 bc 06             	mov    %al,0x6bc
    32f4:	80 3e b8 06 07       	cmpb   $0x7,0x6b8
    32f9:	75 05                	jne    0x3300
    32fb:	b8 00 b0             	mov    $0xb000,%ax
    32fe:	eb 03                	jmp    0x3303
    3300:	b8 00 b8             	mov    $0xb800,%ax
    3303:	a3 bf 06             	mov    %ax,0x6bf
    3306:	c7 06 bd 06 00 00    	movw   $0x0,0x6bd
    330c:	b0 00                	mov    $0x0,%al
    330e:	a2 b3 06             	mov    %al,0x6b3
    3311:	a2 b2 06             	mov    %al,0x6b2
    3314:	a0 ba 06             	mov    0x6ba,%al
    3317:	04 ff                	add    $0xff,%al
    3319:	a2 b4 06             	mov    %al,0x6b4
    331c:	c6 06 b5 06 18       	movb   $0x18,0x6b5
    3321:	5d                   	pop    %bp
    3322:	c3                   	ret    
    3323:	c3                   	ret    
    3324:	b0 06                	mov    $0x6,%al
    3326:	50                   	push   %ax
    3327:	ff 36 b2 06          	pushw  0x6b2
    332b:	ff 36 b3 06          	pushw  0x6b3
    332f:	ff 36 b4 06          	pushw  0x6b4
    3333:	ff 36 b5 06          	pushw  0x6b5
    3337:	b0 00                	mov    $0x0,%al
    3339:	50                   	push   %ax
    333a:	e8 9b 02             	call   0x35d8
    333d:	8a 16 b2 06          	mov    0x6b2,%dl
    3341:	8a 36 b3 06          	mov    0x6b3,%dh
    3345:	b4 02                	mov    $0x2,%ah
    3347:	b7 00                	mov    $0x0,%bh
    3349:	e8 02 ff             	call   0x324e
    334c:	c3                   	ret    
    334d:	55                   	push   %bp
    334e:	8b ec                	mov    %sp,%bp
    3350:	a0 b6 06             	mov    0x6b6,%al
    3353:	24 70                	and    $0x70,%al
    3355:	8a 56 04             	mov    0x4(%bp),%dl
    3358:	80 e2 8f             	and    $0x8f,%dl
    335b:	0a c2                	or     %dl,%al
    335d:	a2 b6 06             	mov    %al,0x6b6
    3360:	5d                   	pop    %bp
    3361:	c3                   	ret    
    3362:	55                   	push   %bp
    3363:	8b ec                	mov    %sp,%bp
    3365:	a0 b6 06             	mov    0x6b6,%al
    3368:	24 8f                	and    $0x8f,%al
    336a:	8a 56 04             	mov    0x4(%bp),%dl
    336d:	b1 04                	mov    $0x4,%cl
    336f:	d2 e2                	shl    %cl,%dl
    3371:	80 e2 7f             	and    $0x7f,%dl
    3374:	0a c2                	or     %dl,%al
    3376:	a2 b6 06             	mov    %al,0x6b6
    3379:	5d                   	pop    %bp
    337a:	c3                   	ret    
    337b:	55                   	push   %bp
    337c:	8b ec                	mov    %sp,%bp
    337e:	8a 46 04             	mov    0x4(%bp),%al
    3381:	a2 b6 06             	mov    %al,0x6b6
    3384:	5d                   	pop    %bp
    3385:	c3                   	ret    
    3386:	80 0e b6 06 08       	orb    $0x8,0x6b6
    338b:	c3                   	ret    
    338c:	80 26 b6 06 f7       	andb   $0xf7,0x6b6
    3391:	c3                   	ret    
    3392:	a0 b7 06             	mov    0x6b7,%al
    3395:	a2 b6 06             	mov    %al,0x6b6
    3398:	c3                   	ret    
    3399:	00 00                	add    %al,(%bx,%si)
    339b:	00 4c 4c             	add    %cl,0x4c(%si)
    339e:	55                   	push   %bp
    339f:	8b ec                	mov    %sp,%bp
    33a1:	56                   	push   %si
    33a2:	57                   	push   %di
    33a3:	1e                   	push   %ds
    33a4:	06                   	push   %es
    33a5:	8b 4e 06             	mov    0x6(%bp),%cx
    33a8:	2e a1 9a 31          	mov    %cs:0x319a,%ax
    33ac:	0b c0                	or     %ax,%ax
    33ae:	75 23                	jne    0x33d3
    33b0:	b8 40 00             	mov    $0x40,%ax
    33b3:	8e c0                	mov    %ax,%es
    33b5:	26 8b 1e 6c 00       	mov    %es:0x6c,%bx
    33ba:	e8 3a 00             	call   0x33f7
    33bd:	26 2b 1e 6c 00       	sub    %es:0x6c,%bx
    33c2:	f7 db                	neg    %bx
    33c4:	b8 37 00             	mov    $0x37,%ax
    33c7:	f7 e3                	mul    %bx
    33c9:	3b c8                	cmp    %ax,%cx
    33cb:	76 1e                	jbe    0x33eb
    33cd:	2b c8                	sub    %ax,%cx
    33cf:	2e a1 9a 31          	mov    %cs:0x319a,%ax
    33d3:	33 db                	xor    %bx,%bx
    33d5:	8e c3                	mov    %bx,%es
    33d7:	26 8a 17             	mov    %es:(%bx),%dl
    33da:	e3 0f                	jcxz   0x33eb
    33dc:	8b f1                	mov    %cx,%si
    33de:	8b c8                	mov    %ax,%cx
    33e0:	26 3a 17             	cmp    %es:(%bx),%dl
    33e3:	75 00                	jne    0x33e5
    33e5:	e2 f9                	loop   0x33e0
    33e7:	8b ce                	mov    %si,%cx
    33e9:	e2 f1                	loop   0x33dc
    33eb:	2e a1 9a 31          	mov    %cs:0x319a,%ax
    33ef:	07                   	pop    %es
    33f0:	1f                   	pop    %ds
    33f1:	5f                   	pop    %di
    33f2:	5e                   	pop    %si
    33f3:	5d                   	pop    %bp
    33f4:	44                   	inc    %sp
    33f5:	44                   	inc    %sp
    33f6:	c3                   	ret    
    33f7:	53                   	push   %bx
    33f8:	51                   	push   %cx
    33f9:	52                   	push   %dx
    33fa:	06                   	push   %es
    33fb:	b8 40 00             	mov    $0x40,%ax
    33fe:	8e c0                	mov    %ax,%es
    3400:	bb 6c 00             	mov    $0x6c,%bx
    3403:	26 8a 07             	mov    %es:(%bx),%al
    3406:	b9 ff ff             	mov    $0xffff,%cx
    3409:	26 8a 17             	mov    %es:(%bx),%dl
    340c:	3a c2                	cmp    %dl,%al
    340e:	74 f9                	je     0x3409
    3410:	26 3a 17             	cmp    %es:(%bx),%dl
    3413:	75 02                	jne    0x3417
    3415:	e2 f9                	loop   0x3410
    3417:	f7 d9                	neg    %cx
    3419:	49                   	dec    %cx
    341a:	b8 37 00             	mov    $0x37,%ax
    341d:	91                   	xchg   %ax,%cx
    341e:	33 d2                	xor    %dx,%dx
    3420:	f7 f1                	div    %cx
    3422:	2e a3 9a 31          	mov    %ax,%cs:0x319a
    3426:	26 8a 07             	mov    %es:(%bx),%al
    3429:	b9 ff ff             	mov    $0xffff,%cx
    342c:	26 8a 17             	mov    %es:(%bx),%dl
    342f:	3a c2                	cmp    %dl,%al
    3431:	74 f9                	je     0x342c
    3433:	53                   	push   %bx
    3434:	52                   	push   %dx
    3435:	b8 37 00             	mov    $0x37,%ax
    3438:	50                   	push   %ax
    3439:	e8 60 ff             	call   0x339c
    343c:	58                   	pop    %ax
    343d:	5a                   	pop    %dx
    343e:	5b                   	pop    %bx
    343f:	26 3a 17             	cmp    %es:(%bx),%dl
    3442:	74 07                	je     0x344b
    3444:	2e ff 0e 9a 31       	decw   %cs:0x319a
    3449:	eb db                	jmp    0x3426
    344b:	07                   	pop    %es
    344c:	5a                   	pop    %dx
    344d:	59                   	pop    %cx
    344e:	5b                   	pop    %bx
    344f:	c3                   	ret    
    3450:	55                   	push   %bp
    3451:	8b ec                	mov    %sp,%bp
    3453:	56                   	push   %si
    3454:	57                   	push   %di
    3455:	ff 76 04             	pushw  0x4(%bp)
    3458:	ff 76 06             	pushw  0x6(%bp)
    345b:	ff 76 08             	pushw  0x8(%bp)
    345e:	ff 76 0a             	pushw  0xa(%bp)
    3461:	e8 4f 04             	call   0x38b3
    3464:	0b c0                	or     %ax,%ax
    3466:	75 04                	jne    0x346c
    3468:	33 c0                	xor    %ax,%ax
    346a:	eb 2f                	jmp    0x349b
    346c:	8b 7e 08             	mov    0x8(%bp),%di
    346f:	2b 7e 04             	sub    0x4(%bp),%di
    3472:	47                   	inc    %di
    3473:	8b 76 06             	mov    0x6(%bp),%si
    3476:	eb 19                	jmp    0x3491
    3478:	1e                   	push   %ds
    3479:	ff 76 0c             	pushw  0xc(%bp)
    347c:	ff 76 04             	pushw  0x4(%bp)
    347f:	56                   	push   %si
    3480:	e8 91 04             	call   0x3914
    3483:	52                   	push   %dx
    3484:	50                   	push   %ax
    3485:	57                   	push   %di
    3486:	e8 ef 03             	call   0x3878
    3489:	8b c7                	mov    %di,%ax
    348b:	d1 e0                	shl    %ax
    348d:	01 46 0c             	add    %ax,0xc(%bp)
    3490:	46                   	inc    %si
    3491:	3b 76 0a             	cmp    0xa(%bp),%si
    3494:	7e e2                	jle    0x3478
    3496:	b8 01 00             	mov    $0x1,%ax
    3499:	eb 00                	jmp    0x349b
    349b:	5f                   	pop    %di
    349c:	5e                   	pop    %si
    349d:	5d                   	pop    %bp
    349e:	c3                   	ret    
    349f:	55                   	push   %bp
    34a0:	8b ec                	mov    %sp,%bp
    34a2:	56                   	push   %si
    34a3:	57                   	push   %di
    34a4:	8b 7e 08             	mov    0x8(%bp),%di
    34a7:	2b 7e 04             	sub    0x4(%bp),%di
    34aa:	47                   	inc    %di
    34ab:	8b 76 06             	mov    0x6(%bp),%si
    34ae:	eb 19                	jmp    0x34c9
    34b0:	ff 76 04             	pushw  0x4(%bp)
    34b3:	56                   	push   %si
    34b4:	e8 5d 04             	call   0x3914
    34b7:	52                   	push   %dx
    34b8:	50                   	push   %ax
    34b9:	1e                   	push   %ds
    34ba:	ff 76 0c             	pushw  0xc(%bp)
    34bd:	57                   	push   %di
    34be:	e8 b7 03             	call   0x3878
    34c1:	8b c7                	mov    %di,%ax
    34c3:	d1 e0                	shl    %ax
    34c5:	01 46 0c             	add    %ax,0xc(%bp)
    34c8:	46                   	inc    %si
    34c9:	3b 76 0a             	cmp    0xa(%bp),%si
    34cc:	7e e2                	jle    0x34b0
    34ce:	b8 01 00             	mov    $0x1,%ax
    34d1:	eb 00                	jmp    0x34d3
    34d3:	5f                   	pop    %di
    34d4:	5e                   	pop    %si
    34d5:	5d                   	pop    %bp
    34d6:	c3                   	ret    
    34d7:	55                   	push   %bp
    34d8:	8b ec                	mov    %sp,%bp
    34da:	83 ec 06             	sub    $0x6,%sp
    34dd:	56                   	push   %si
    34de:	57                   	push   %di
    34df:	8b 76 06             	mov    0x6(%bp),%si
    34e2:	ff 76 04             	pushw  0x4(%bp)
    34e5:	56                   	push   %si
    34e6:	ff 76 08             	pushw  0x8(%bp)
    34e9:	ff 76 0a             	pushw  0xa(%bp)
    34ec:	e8 c4 03             	call   0x38b3
    34ef:	0b c0                	or     %ax,%ax
    34f1:	74 20                	je     0x3513
    34f3:	ff 76 0c             	pushw  0xc(%bp)
    34f6:	ff 76 0e             	pushw  0xe(%bp)
    34f9:	8b 46 08             	mov    0x8(%bp),%ax
    34fc:	2b 46 04             	sub    0x4(%bp),%ax
    34ff:	03 46 0c             	add    0xc(%bp),%ax
    3502:	50                   	push   %ax
    3503:	8b 46 0a             	mov    0xa(%bp),%ax
    3506:	2b c6                	sub    %si,%ax
    3508:	03 46 0e             	add    0xe(%bp),%ax
    350b:	50                   	push   %ax
    350c:	e8 a4 03             	call   0x38b3
    350f:	0b c0                	or     %ax,%ax
    3511:	75 04                	jne    0x3517
    3513:	33 c0                	xor    %ax,%ax
    3515:	eb 5c                	jmp    0x3573
    3517:	89 76 fa             	mov    %si,-0x6(%bp)
    351a:	8b 46 0a             	mov    0xa(%bp),%ax
    351d:	89 46 fc             	mov    %ax,-0x4(%bp)
    3520:	c7 46 fe 01 00       	movw   $0x1,-0x2(%bp)
    3525:	3b 76 0e             	cmp    0xe(%bp),%si
    3528:	7d 0e                	jge    0x3538
    352a:	8b 46 0a             	mov    0xa(%bp),%ax
    352d:	89 46 fa             	mov    %ax,-0x6(%bp)
    3530:	89 76 fc             	mov    %si,-0x4(%bp)
    3533:	c7 46 fe ff ff       	movw   $0xffff,-0x2(%bp)
    3538:	8b 7e fa             	mov    -0x6(%bp),%di
    353b:	eb 27                	jmp    0x3564
    353d:	ff 76 0c             	pushw  0xc(%bp)
    3540:	8b c7                	mov    %di,%ax
    3542:	2b c6                	sub    %si,%ax
    3544:	03 46 0e             	add    0xe(%bp),%ax
    3547:	50                   	push   %ax
    3548:	e8 c9 03             	call   0x3914
    354b:	52                   	push   %dx
    354c:	50                   	push   %ax
    354d:	ff 76 04             	pushw  0x4(%bp)
    3550:	57                   	push   %di
    3551:	e8 c0 03             	call   0x3914
    3554:	52                   	push   %dx
    3555:	50                   	push   %ax
    3556:	8b 46 08             	mov    0x8(%bp),%ax
    3559:	2b 46 04             	sub    0x4(%bp),%ax
    355c:	40                   	inc    %ax
    355d:	50                   	push   %ax
    355e:	e8 17 03             	call   0x3878
    3561:	03 7e fe             	add    -0x2(%bp),%di
    3564:	8b 46 fc             	mov    -0x4(%bp),%ax
    3567:	03 46 fe             	add    -0x2(%bp),%ax
    356a:	3b c7                	cmp    %di,%ax
    356c:	75 cf                	jne    0x353d
    356e:	b8 01 00             	mov    $0x1,%ax
    3571:	eb 00                	jmp    0x3573
    3573:	5f                   	pop    %di
    3574:	5e                   	pop    %si
    3575:	8b e5                	mov    %bp,%sp
    3577:	5d                   	pop    %bp
    3578:	c3                   	ret    
    3579:	53                   	push   %bx
    357a:	74 61                	je     0x35dd
    357c:	63 6b 20             	arpl   %bp,0x20(%bp,%di)
    357f:	6f                   	outsw  %ds:(%si),(%dx)
    3580:	76 65                	jbe    0x35e7
    3582:	72 66                	jb     0x35ea
    3584:	6c                   	insb   (%dx),%es:(%di)
    3585:	6f                   	outsw  %ds:(%si),(%dx)
    3586:	77 21                	ja     0x35a9
    3588:	0d 0a 24             	or     $0x240a,%ax
    358b:	8c c8                	mov    %cs,%ax
    358d:	8e d8                	mov    %ax,%ds
    358f:	ba 79 33             	mov    $0x3379,%dx
    3592:	b4 09                	mov    $0x9,%ah
    3594:	cd 21                	int    $0x21
    3596:	e9 88 cd             	jmp    0x321
    3599:	55                   	push   %bp
    359a:	8b ec                	mov    %sp,%bp
    359c:	56                   	push   %si
    359d:	57                   	push   %di
    359e:	1e                   	push   %ds
    359f:	c5 76 06             	lds    0x6(%bp),%si
    35a2:	c4 7e 0a             	les    0xa(%bp),%di
    35a5:	fc                   	cld    
    35a6:	d1 e9                	shr    %cx
    35a8:	f3 a5                	rep movsw %ds:(%si),%es:(%di)
    35aa:	13 c9                	adc    %cx,%cx
    35ac:	f3 a4                	rep movsb %ds:(%si),%es:(%di)
    35ae:	1f                   	pop    %ds
    35af:	5f                   	pop    %di
    35b0:	5e                   	pop    %si
    35b1:	5d                   	pop    %bp
    35b2:	ca 08 00             	lret   $0x8
    35b5:	55                   	push   %bp
    35b6:	8b ec                	mov    %sp,%bp
    35b8:	8a 2e b6 06          	mov    0x6b6,%ch
    35bc:	b1 20                	mov    $0x20,%cl
    35be:	eb 0c                	jmp    0x35cc
    35c0:	8b 5e 08             	mov    0x8(%bp),%bx
    35c3:	89 0f                	mov    %cx,(%bx)
    35c5:	83 46 08 02          	addw   $0x2,0x8(%bp)
    35c9:	ff 46 06             	incw   0x6(%bp)
    35cc:	8b 46 06             	mov    0x6(%bp),%ax
    35cf:	3b 46 04             	cmp    0x4(%bp),%ax
    35d2:	7e ec                	jle    0x35c0
    35d4:	5d                   	pop    %bp
    35d5:	c2 06 00             	ret    $0x6
    35d8:	55                   	push   %bp
    35d9:	8b ec                	mov    %sp,%bp
